
Robot_Firmware_v17.9.elf:     file format elf32-littlearm

Sections:
Idx Name          Size      VMA       LMA       File off  Algn
  0 .text         00003424  00400000  00400000  00010000  2**3
                  CONTENTS, ALLOC, LOAD, READONLY, CODE
  1 .relocate     00000050  20400000  00403424  00020000  2**2
                  CONTENTS, ALLOC, LOAD, DATA
  2 .bss          00005fa8  20400050  00403478  00020050  2**3
                  ALLOC
  3 .heap         00000200  20405ff8  00409420  00020050  2**0
                  ALLOC
  4 .stack        00000400  204061f8  00409620  00020050  2**0
                  ALLOC
  5 .ARM.attributes 0000002e  00000000  00000000  00020050  2**0
                  CONTENTS, READONLY
  6 .comment      00000059  00000000  00000000  0002007e  2**0
                  CONTENTS, READONLY
  7 .debug_info   00023de5  00000000  00000000  000200d7  2**0
                  CONTENTS, READONLY, DEBUGGING
  8 .debug_abbrev 00004a20  00000000  00000000  00043ebc  2**0
                  CONTENTS, READONLY, DEBUGGING
  9 .debug_loc    0000cc11  00000000  00000000  000488dc  2**0
                  CONTENTS, READONLY, DEBUGGING
 10 .debug_aranges 00000df8  00000000  00000000  000554ed  2**0
                  CONTENTS, READONLY, DEBUGGING
 11 .debug_ranges 00000d18  00000000  00000000  000562e5  2**0
                  CONTENTS, READONLY, DEBUGGING
 12 .debug_macro  0003ccd9  00000000  00000000  00056ffd  2**0
                  CONTENTS, READONLY, DEBUGGING
 13 .debug_line   0001d778  00000000  00000000  00093cd6  2**0
                  CONTENTS, READONLY, DEBUGGING
 14 .debug_str    00123e21  00000000  00000000  000b144e  2**0
                  CONTENTS, READONLY, DEBUGGING
 15 .debug_frame  00002378  00000000  00000000  001d5270  2**2
                  CONTENTS, READONLY, DEBUGGING

Disassembly of section .text:

00400000 <exception_table>:
  400000:	f8 65 40 20 f9 01 40 00 f5 01 40 00 f5 01 40 00     .e@ ..@...@...@.
  400010:	f5 01 40 00 f5 01 40 00 f5 01 40 00 00 00 00 00     ..@...@...@.....
	...
  40002c:	f5 01 40 00 f5 01 40 00 00 00 00 00 f5 01 40 00     ..@...@.......@.
  40003c:	f5 01 40 00 f5 01 40 00 f5 01 40 00 f5 01 40 00     ..@...@...@...@.
  40004c:	f5 01 40 00 f5 01 40 00 f5 01 40 00 f5 01 40 00     ..@...@...@...@.
  40005c:	f5 01 40 00 f5 01 40 00 00 00 00 00 4d 15 40 00     ..@...@.....M.@.
  40006c:	41 15 40 00 00 00 00 00 f5 01 40 00 f5 01 40 00     A.@.......@...@.
  40007c:	f5 01 40 00 f5 01 40 00 00 00 00 00 f5 01 40 00     ..@...@.......@.
  40008c:	f5 01 40 00 f5 01 40 00 f5 01 40 00 f5 01 40 00     ..@...@...@...@.
  40009c:	ad 1c 40 00 f5 01 40 00 f5 01 40 00 c1 1c 40 00     ..@...@...@...@.
  4000ac:	f5 01 40 00 f5 01 40 00 f5 01 40 00 f5 01 40 00     ..@...@...@...@.
  4000bc:	11 17 40 00 f5 01 40 00 f5 01 40 00 f5 01 40 00     ..@...@...@...@.
	...
  4000e0:	f5 01 40 00 f5 01 40 00 00 00 00 00 f5 01 40 00     ..@...@.......@.
  4000f0:	f5 01 40 00 f5 01 40 00 f5 01 40 00 f5 01 40 00     ..@...@...@...@.
  400100:	f5 01 40 00 f5 01 40 00 f5 01 40 00 f5 01 40 00     ..@...@...@...@.
  400110:	f5 01 40 00 00 00 00 00 00 00 00 00 00 00 00 00     ..@.............
  400120:	f5 01 40 00 f5 01 40 00 f5 01 40 00 f5 01 40 00     ..@...@...@...@.
  400130:	25 17 40 00 f5 01 40 00 00 00 00 00 f5 01 40 00     %.@...@.......@.
  400140:	f5 01 40 00 f5 01 40 00 00 00 00 00 00 00 00 00     ..@...@.........
  400150:	f5 01 40 00 f5 01 40 00                             ..@...@.

00400158 <__do_global_dtors_aux>:
  400158:	b510      	push	{r4, lr}
  40015a:	4c05      	ldr	r4, [pc, #20]	; (400170 <__do_global_dtors_aux+0x18>)
  40015c:	7823      	ldrb	r3, [r4, #0]
  40015e:	b933      	cbnz	r3, 40016e <__do_global_dtors_aux+0x16>
  400160:	4b04      	ldr	r3, [pc, #16]	; (400174 <__do_global_dtors_aux+0x1c>)
  400162:	b113      	cbz	r3, 40016a <__do_global_dtors_aux+0x12>
  400164:	4804      	ldr	r0, [pc, #16]	; (400178 <__do_global_dtors_aux+0x20>)
  400166:	f3af 8000 	nop.w
  40016a:	2301      	movs	r3, #1
  40016c:	7023      	strb	r3, [r4, #0]
  40016e:	bd10      	pop	{r4, pc}
  400170:	20400050 	.word	0x20400050
  400174:	00000000 	.word	0x00000000
  400178:	00403424 	.word	0x00403424

0040017c <frame_dummy>:
  40017c:	4b0c      	ldr	r3, [pc, #48]	; (4001b0 <frame_dummy+0x34>)
  40017e:	b143      	cbz	r3, 400192 <frame_dummy+0x16>
  400180:	480c      	ldr	r0, [pc, #48]	; (4001b4 <frame_dummy+0x38>)
  400182:	490d      	ldr	r1, [pc, #52]	; (4001b8 <frame_dummy+0x3c>)
  400184:	b510      	push	{r4, lr}
  400186:	f3af 8000 	nop.w
  40018a:	480c      	ldr	r0, [pc, #48]	; (4001bc <frame_dummy+0x40>)
  40018c:	6803      	ldr	r3, [r0, #0]
  40018e:	b923      	cbnz	r3, 40019a <frame_dummy+0x1e>
  400190:	bd10      	pop	{r4, pc}
  400192:	480a      	ldr	r0, [pc, #40]	; (4001bc <frame_dummy+0x40>)
  400194:	6803      	ldr	r3, [r0, #0]
  400196:	b933      	cbnz	r3, 4001a6 <frame_dummy+0x2a>
  400198:	4770      	bx	lr
  40019a:	4b09      	ldr	r3, [pc, #36]	; (4001c0 <frame_dummy+0x44>)
  40019c:	2b00      	cmp	r3, #0
  40019e:	d0f7      	beq.n	400190 <frame_dummy+0x14>
  4001a0:	e8bd 4010 	ldmia.w	sp!, {r4, lr}
  4001a4:	4718      	bx	r3
  4001a6:	4b06      	ldr	r3, [pc, #24]	; (4001c0 <frame_dummy+0x44>)
  4001a8:	2b00      	cmp	r3, #0
  4001aa:	d0f5      	beq.n	400198 <frame_dummy+0x1c>
  4001ac:	4718      	bx	r3
  4001ae:	bf00      	nop
  4001b0:	00000000 	.word	0x00000000
  4001b4:	00403424 	.word	0x00403424
  4001b8:	20400054 	.word	0x20400054
  4001bc:	00403424 	.word	0x00403424
  4001c0:	00000000 	.word	0x00000000

004001c4 <adc_init>:
  4001c4:	b538      	push	{r3, r4, r5, lr}
  4001c6:	4d06      	ldr	r5, [pc, #24]	; (4001e0 <adc_init+0x1c>)
  4001c8:	2100      	movs	r1, #0
  4001ca:	4628      	mov	r0, r5
  4001cc:	4c05      	ldr	r4, [pc, #20]	; (4001e4 <adc_init+0x20>)
  4001ce:	47a0      	blx	r4
  4001d0:	2105      	movs	r1, #5
  4001d2:	4628      	mov	r0, r5
  4001d4:	47a0      	blx	r4
  4001d6:	2107      	movs	r1, #7
  4001d8:	4628      	mov	r0, r5
  4001da:	47a0      	blx	r4
  4001dc:	bd38      	pop	{r3, r4, r5, pc}
  4001de:	bf00      	nop
  4001e0:	20400148 	.word	0x20400148
  4001e4:	00400a49 	.word	0x00400a49

004001e8 <atmel_start_init>:
  4001e8:	b508      	push	{r3, lr}
  4001ea:	4b01      	ldr	r3, [pc, #4]	; (4001f0 <atmel_start_init+0x8>)
  4001ec:	4798      	blx	r3
  4001ee:	bd08      	pop	{r3, pc}
  4001f0:	004006e9 	.word	0x004006e9

004001f4 <Dummy_Handler>:
  4001f4:	e7fe      	b.n	4001f4 <Dummy_Handler>
	...

004001f8 <Reset_Handler>:
  4001f8:	b508      	push	{r3, lr}
  4001fa:	4b10      	ldr	r3, [pc, #64]	; (40023c <Reset_Handler+0x44>)
  4001fc:	4a10      	ldr	r2, [pc, #64]	; (400240 <Reset_Handler+0x48>)
  4001fe:	429a      	cmp	r2, r3
  400200:	d009      	beq.n	400216 <Reset_Handler+0x1e>
  400202:	4b0e      	ldr	r3, [pc, #56]	; (40023c <Reset_Handler+0x44>)
  400204:	4a0e      	ldr	r2, [pc, #56]	; (400240 <Reset_Handler+0x48>)
  400206:	e003      	b.n	400210 <Reset_Handler+0x18>
  400208:	6811      	ldr	r1, [r2, #0]
  40020a:	6019      	str	r1, [r3, #0]
  40020c:	3304      	adds	r3, #4
  40020e:	3204      	adds	r2, #4
  400210:	490c      	ldr	r1, [pc, #48]	; (400244 <Reset_Handler+0x4c>)
  400212:	428b      	cmp	r3, r1
  400214:	d3f8      	bcc.n	400208 <Reset_Handler+0x10>
  400216:	4b0c      	ldr	r3, [pc, #48]	; (400248 <Reset_Handler+0x50>)
  400218:	e002      	b.n	400220 <Reset_Handler+0x28>
  40021a:	2200      	movs	r2, #0
  40021c:	601a      	str	r2, [r3, #0]
  40021e:	3304      	adds	r3, #4
  400220:	4a0a      	ldr	r2, [pc, #40]	; (40024c <Reset_Handler+0x54>)
  400222:	4293      	cmp	r3, r2
  400224:	d3f9      	bcc.n	40021a <Reset_Handler+0x22>
  400226:	4a0a      	ldr	r2, [pc, #40]	; (400250 <Reset_Handler+0x58>)
  400228:	4b0a      	ldr	r3, [pc, #40]	; (400254 <Reset_Handler+0x5c>)
  40022a:	f023 037f 	bic.w	r3, r3, #127	; 0x7f
  40022e:	6093      	str	r3, [r2, #8]
  400230:	4b09      	ldr	r3, [pc, #36]	; (400258 <Reset_Handler+0x60>)
  400232:	4798      	blx	r3
  400234:	4b09      	ldr	r3, [pc, #36]	; (40025c <Reset_Handler+0x64>)
  400236:	4798      	blx	r3
  400238:	e7fe      	b.n	400238 <Reset_Handler+0x40>
  40023a:	bf00      	nop
  40023c:	20400000 	.word	0x20400000
  400240:	00403424 	.word	0x00403424
  400244:	20400050 	.word	0x20400050
  400248:	20400050 	.word	0x20400050
  40024c:	20405ff8 	.word	0x20405ff8
  400250:	e000ed00 	.word	0xe000ed00
  400254:	00400000 	.word	0x00400000
  400258:	00403091 	.word	0x00403091
  40025c:	00401ef1 	.word	0x00401ef1

00400260 <read_dipswitch>:
  400260:	4b1c      	ldr	r3, [pc, #112]	; (4002d4 <read_dipswitch+0x74>)
  400262:	6bdb      	ldr	r3, [r3, #60]	; 0x3c
  400264:	f413 5f80 	tst.w	r3, #4096	; 0x1000
  400268:	d132      	bne.n	4002d0 <read_dipswitch+0x70>
  40026a:	2000      	movs	r0, #0
  40026c:	4b19      	ldr	r3, [pc, #100]	; (4002d4 <read_dipswitch+0x74>)
  40026e:	6bdb      	ldr	r3, [r3, #60]	; 0x3c
  400270:	f413 5f00 	tst.w	r3, #8192	; 0x2000
  400274:	d001      	beq.n	40027a <read_dipswitch+0x1a>
  400276:	f040 0002 	orr.w	r0, r0, #2
  40027a:	4b16      	ldr	r3, [pc, #88]	; (4002d4 <read_dipswitch+0x74>)
  40027c:	6bdb      	ldr	r3, [r3, #60]	; 0x3c
  40027e:	f413 4f80 	tst.w	r3, #16384	; 0x4000
  400282:	d001      	beq.n	400288 <read_dipswitch+0x28>
  400284:	f040 0004 	orr.w	r0, r0, #4
  400288:	4b12      	ldr	r3, [pc, #72]	; (4002d4 <read_dipswitch+0x74>)
  40028a:	6bdb      	ldr	r3, [r3, #60]	; 0x3c
  40028c:	f413 4f00 	tst.w	r3, #32768	; 0x8000
  400290:	d001      	beq.n	400296 <read_dipswitch+0x36>
  400292:	f040 0008 	orr.w	r0, r0, #8
  400296:	4b0f      	ldr	r3, [pc, #60]	; (4002d4 <read_dipswitch+0x74>)
  400298:	6bdb      	ldr	r3, [r3, #60]	; 0x3c
  40029a:	f413 3f80 	tst.w	r3, #65536	; 0x10000
  40029e:	d001      	beq.n	4002a4 <read_dipswitch+0x44>
  4002a0:	f040 0010 	orr.w	r0, r0, #16
  4002a4:	4b0b      	ldr	r3, [pc, #44]	; (4002d4 <read_dipswitch+0x74>)
  4002a6:	6bdb      	ldr	r3, [r3, #60]	; 0x3c
  4002a8:	f413 3f00 	tst.w	r3, #131072	; 0x20000
  4002ac:	d001      	beq.n	4002b2 <read_dipswitch+0x52>
  4002ae:	f040 0020 	orr.w	r0, r0, #32
  4002b2:	4b08      	ldr	r3, [pc, #32]	; (4002d4 <read_dipswitch+0x74>)
  4002b4:	6bdb      	ldr	r3, [r3, #60]	; 0x3c
  4002b6:	f413 2f80 	tst.w	r3, #262144	; 0x40000
  4002ba:	d001      	beq.n	4002c0 <read_dipswitch+0x60>
  4002bc:	f040 0040 	orr.w	r0, r0, #64	; 0x40
  4002c0:	4b04      	ldr	r3, [pc, #16]	; (4002d4 <read_dipswitch+0x74>)
  4002c2:	6bdb      	ldr	r3, [r3, #60]	; 0x3c
  4002c4:	f413 2f00 	tst.w	r3, #524288	; 0x80000
  4002c8:	d001      	beq.n	4002ce <read_dipswitch+0x6e>
  4002ca:	f040 0080 	orr.w	r0, r0, #128	; 0x80
  4002ce:	4770      	bx	lr
  4002d0:	2001      	movs	r0, #1
  4002d2:	e7cb      	b.n	40026c <read_dipswitch+0xc>
  4002d4:	400e1400 	.word	0x400e1400

004002d8 <set_LEDs>:
  4002d8:	f010 0f01 	tst.w	r0, #1
  4002dc:	d018      	beq.n	400310 <set_LEDs+0x38>
  4002de:	2280      	movs	r2, #128	; 0x80
  4002e0:	4b15      	ldr	r3, [pc, #84]	; (400338 <set_LEDs+0x60>)
  4002e2:	631a      	str	r2, [r3, #48]	; 0x30
  4002e4:	f010 0f02 	tst.w	r0, #2
  4002e8:	d016      	beq.n	400318 <set_LEDs+0x40>
  4002ea:	f44f 7280 	mov.w	r2, #256	; 0x100
  4002ee:	4b12      	ldr	r3, [pc, #72]	; (400338 <set_LEDs+0x60>)
  4002f0:	631a      	str	r2, [r3, #48]	; 0x30
  4002f2:	f010 0f04 	tst.w	r0, #4
  4002f6:	d014      	beq.n	400322 <set_LEDs+0x4a>
  4002f8:	f44f 7200 	mov.w	r2, #512	; 0x200
  4002fc:	4b0e      	ldr	r3, [pc, #56]	; (400338 <set_LEDs+0x60>)
  4002fe:	631a      	str	r2, [r3, #48]	; 0x30
  400300:	f010 0f08 	tst.w	r0, #8
  400304:	d112      	bne.n	40032c <set_LEDs+0x54>
  400306:	f44f 6280 	mov.w	r2, #1024	; 0x400
  40030a:	4b0b      	ldr	r3, [pc, #44]	; (400338 <set_LEDs+0x60>)
  40030c:	635a      	str	r2, [r3, #52]	; 0x34
  40030e:	4770      	bx	lr
  400310:	2280      	movs	r2, #128	; 0x80
  400312:	4b09      	ldr	r3, [pc, #36]	; (400338 <set_LEDs+0x60>)
  400314:	635a      	str	r2, [r3, #52]	; 0x34
  400316:	e7e5      	b.n	4002e4 <set_LEDs+0xc>
  400318:	f44f 7280 	mov.w	r2, #256	; 0x100
  40031c:	4b06      	ldr	r3, [pc, #24]	; (400338 <set_LEDs+0x60>)
  40031e:	635a      	str	r2, [r3, #52]	; 0x34
  400320:	e7e7      	b.n	4002f2 <set_LEDs+0x1a>
  400322:	f44f 7200 	mov.w	r2, #512	; 0x200
  400326:	4b04      	ldr	r3, [pc, #16]	; (400338 <set_LEDs+0x60>)
  400328:	635a      	str	r2, [r3, #52]	; 0x34
  40032a:	e7e9      	b.n	400300 <set_LEDs+0x28>
  40032c:	f44f 6280 	mov.w	r2, #1024	; 0x400
  400330:	4b01      	ldr	r3, [pc, #4]	; (400338 <set_LEDs+0x60>)
  400332:	631a      	str	r2, [r3, #48]	; 0x30
  400334:	4770      	bx	lr
  400336:	bf00      	nop
  400338:	400e1400 	.word	0x400e1400

0040033c <TIMER_0_init>:
  40033c:	b508      	push	{r3, lr}
  40033e:	4b08      	ldr	r3, [pc, #32]	; (400360 <TIMER_0_init+0x24>)
  400340:	699b      	ldr	r3, [r3, #24]
  400342:	f413 0f00 	tst.w	r3, #8388608	; 0x800000
  400346:	d103      	bne.n	400350 <TIMER_0_init+0x14>
  400348:	f44f 0200 	mov.w	r2, #8388608	; 0x800000
  40034c:	4b04      	ldr	r3, [pc, #16]	; (400360 <TIMER_0_init+0x24>)
  40034e:	611a      	str	r2, [r3, #16]
  400350:	4b04      	ldr	r3, [pc, #16]	; (400364 <TIMER_0_init+0x28>)
  400352:	4798      	blx	r3
  400354:	4602      	mov	r2, r0
  400356:	4904      	ldr	r1, [pc, #16]	; (400368 <TIMER_0_init+0x2c>)
  400358:	4804      	ldr	r0, [pc, #16]	; (40036c <TIMER_0_init+0x30>)
  40035a:	4b05      	ldr	r3, [pc, #20]	; (400370 <TIMER_0_init+0x34>)
  40035c:	4798      	blx	r3
  40035e:	bd08      	pop	{r3, pc}
  400360:	400e0600 	.word	0x400e0600
  400364:	00401ca9 	.word	0x00401ca9
  400368:	4000c000 	.word	0x4000c000
  40036c:	204001c0 	.word	0x204001c0
  400370:	00400ff5 	.word	0x00400ff5

00400374 <TIMER_1_init>:
  400374:	b508      	push	{r3, lr}
  400376:	4b08      	ldr	r3, [pc, #32]	; (400398 <TIMER_1_init+0x24>)
  400378:	699b      	ldr	r3, [r3, #24]
  40037a:	f013 6f80 	tst.w	r3, #67108864	; 0x4000000
  40037e:	d103      	bne.n	400388 <TIMER_1_init+0x14>
  400380:	f04f 6280 	mov.w	r2, #67108864	; 0x4000000
  400384:	4b04      	ldr	r3, [pc, #16]	; (400398 <TIMER_1_init+0x24>)
  400386:	611a      	str	r2, [r3, #16]
  400388:	4b04      	ldr	r3, [pc, #16]	; (40039c <TIMER_1_init+0x28>)
  40038a:	4798      	blx	r3
  40038c:	4602      	mov	r2, r0
  40038e:	4904      	ldr	r1, [pc, #16]	; (4003a0 <TIMER_1_init+0x2c>)
  400390:	4804      	ldr	r0, [pc, #16]	; (4003a4 <TIMER_1_init+0x30>)
  400392:	4b05      	ldr	r3, [pc, #20]	; (4003a8 <TIMER_1_init+0x34>)
  400394:	4798      	blx	r3
  400396:	bd08      	pop	{r3, pc}
  400398:	400e0600 	.word	0x400e0600
  40039c:	00401ca9 	.word	0x00401ca9
  4003a0:	40010000 	.word	0x40010000
  4003a4:	20400150 	.word	0x20400150
  4003a8:	00400ff5 	.word	0x00400ff5

004003ac <ADC_0_PORT_init>:
  4003ac:	f04f 4280 	mov.w	r2, #1073741824	; 0x40000000
  4003b0:	4b05      	ldr	r3, [pc, #20]	; (4003c8 <ADC_0_PORT_init+0x1c>)
  4003b2:	601a      	str	r2, [r3, #0]
  4003b4:	2204      	movs	r2, #4
  4003b6:	f5a3 6380 	sub.w	r3, r3, #1024	; 0x400
  4003ba:	601a      	str	r2, [r3, #0]
  4003bc:	f44f 2280 	mov.w	r2, #262144	; 0x40000
  4003c0:	f5a3 7300 	sub.w	r3, r3, #512	; 0x200
  4003c4:	601a      	str	r2, [r3, #0]
  4003c6:	4770      	bx	lr
  4003c8:	400e1400 	.word	0x400e1400

004003cc <ADC_0_CLOCK_init>:
  4003cc:	4b04      	ldr	r3, [pc, #16]	; (4003e0 <ADC_0_CLOCK_init+0x14>)
  4003ce:	699b      	ldr	r3, [r3, #24]
  4003d0:	f013 5f00 	tst.w	r3, #536870912	; 0x20000000
  4003d4:	d103      	bne.n	4003de <ADC_0_CLOCK_init+0x12>
  4003d6:	f04f 5200 	mov.w	r2, #536870912	; 0x20000000
  4003da:	4b01      	ldr	r3, [pc, #4]	; (4003e0 <ADC_0_CLOCK_init+0x14>)
  4003dc:	611a      	str	r2, [r3, #16]
  4003de:	4770      	bx	lr
  4003e0:	400e0600 	.word	0x400e0600

004003e4 <ADC_0_init>:
  4003e4:	b508      	push	{r3, lr}
  4003e6:	4b05      	ldr	r3, [pc, #20]	; (4003fc <ADC_0_init+0x18>)
  4003e8:	4798      	blx	r3
  4003ea:	4b05      	ldr	r3, [pc, #20]	; (400400 <ADC_0_init+0x1c>)
  4003ec:	4798      	blx	r3
  4003ee:	2200      	movs	r2, #0
  4003f0:	4904      	ldr	r1, [pc, #16]	; (400404 <ADC_0_init+0x20>)
  4003f2:	4805      	ldr	r0, [pc, #20]	; (400408 <ADC_0_init+0x24>)
  4003f4:	4b05      	ldr	r3, [pc, #20]	; (40040c <ADC_0_init+0x28>)
  4003f6:	4798      	blx	r3
  4003f8:	bd08      	pop	{r3, pc}
  4003fa:	bf00      	nop
  4003fc:	004003cd 	.word	0x004003cd
  400400:	004003ad 	.word	0x004003ad
  400404:	4003c000 	.word	0x4003c000
  400408:	20400148 	.word	0x20400148
  40040c:	00400a19 	.word	0x00400a19

00400410 <EXTERNAL_IRQ_1_init>:
  400410:	4b03      	ldr	r3, [pc, #12]	; (400420 <EXTERNAL_IRQ_1_init+0x10>)
  400412:	2202      	movs	r2, #2
  400414:	615a      	str	r2, [r3, #20]
  400416:	661a      	str	r2, [r3, #96]	; 0x60
  400418:	f8c3 2090 	str.w	r2, [r3, #144]	; 0x90
  40041c:	601a      	str	r2, [r3, #0]
  40041e:	4770      	bx	lr
  400420:	400e1000 	.word	0x400e1000

00400424 <EXTERNAL_IRQ_0_init>:
  400424:	4b12      	ldr	r3, [pc, #72]	; (400470 <EXTERNAL_IRQ_0_init+0x4c>)
  400426:	f44f 4200 	mov.w	r2, #32768	; 0x8000
  40042a:	615a      	str	r2, [r3, #20]
  40042c:	661a      	str	r2, [r3, #96]	; 0x60
  40042e:	f8c3 2090 	str.w	r2, [r3, #144]	; 0x90
  400432:	601a      	str	r2, [r3, #0]
  400434:	f44f 0280 	mov.w	r2, #4194304	; 0x400000
  400438:	615a      	str	r2, [r3, #20]
  40043a:	661a      	str	r2, [r3, #96]	; 0x60
  40043c:	f8c3 2090 	str.w	r2, [r3, #144]	; 0x90
  400440:	601a      	str	r2, [r3, #0]
  400442:	f44f 0200 	mov.w	r2, #8388608	; 0x800000
  400446:	615a      	str	r2, [r3, #20]
  400448:	661a      	str	r2, [r3, #96]	; 0x60
  40044a:	f8c3 2090 	str.w	r2, [r3, #144]	; 0x90
  40044e:	601a      	str	r2, [r3, #0]
  400450:	f04f 7280 	mov.w	r2, #16777216	; 0x1000000
  400454:	615a      	str	r2, [r3, #20]
  400456:	661a      	str	r2, [r3, #96]	; 0x60
  400458:	f8c3 2090 	str.w	r2, [r3, #144]	; 0x90
  40045c:	601a      	str	r2, [r3, #0]
  40045e:	f04f 7200 	mov.w	r2, #33554432	; 0x2000000
  400462:	615a      	str	r2, [r3, #20]
  400464:	661a      	str	r2, [r3, #96]	; 0x60
  400466:	f8c3 2090 	str.w	r2, [r3, #144]	; 0x90
  40046a:	601a      	str	r2, [r3, #0]
  40046c:	4770      	bx	lr
  40046e:	bf00      	nop
  400470:	400e0e00 	.word	0x400e0e00

00400474 <PWM_0_PORT_init>:
  400474:	4b17      	ldr	r3, [pc, #92]	; (4004d4 <PWM_0_PORT_init+0x60>)
  400476:	6f1a      	ldr	r2, [r3, #112]	; 0x70
  400478:	f442 6200 	orr.w	r2, r2, #2048	; 0x800
  40047c:	671a      	str	r2, [r3, #112]	; 0x70
  40047e:	6f5a      	ldr	r2, [r3, #116]	; 0x74
  400480:	f422 6200 	bic.w	r2, r2, #2048	; 0x800
  400484:	675a      	str	r2, [r3, #116]	; 0x74
  400486:	f44f 6200 	mov.w	r2, #2048	; 0x800
  40048a:	605a      	str	r2, [r3, #4]
  40048c:	f5a3 63c0 	sub.w	r3, r3, #1536	; 0x600
  400490:	6f1a      	ldr	r2, [r3, #112]	; 0x70
  400492:	f022 0204 	bic.w	r2, r2, #4
  400496:	671a      	str	r2, [r3, #112]	; 0x70
  400498:	6f5a      	ldr	r2, [r3, #116]	; 0x74
  40049a:	f022 0204 	bic.w	r2, r2, #4
  40049e:	675a      	str	r2, [r3, #116]	; 0x74
  4004a0:	2204      	movs	r2, #4
  4004a2:	605a      	str	r2, [r3, #4]
  4004a4:	6f1a      	ldr	r2, [r3, #112]	; 0x70
  4004a6:	f442 5200 	orr.w	r2, r2, #8192	; 0x2000
  4004aa:	671a      	str	r2, [r3, #112]	; 0x70
  4004ac:	6f5a      	ldr	r2, [r3, #116]	; 0x74
  4004ae:	f422 5200 	bic.w	r2, r2, #8192	; 0x2000
  4004b2:	675a      	str	r2, [r3, #116]	; 0x74
  4004b4:	f44f 5200 	mov.w	r2, #8192	; 0x2000
  4004b8:	605a      	str	r2, [r3, #4]
  4004ba:	6f1a      	ldr	r2, [r3, #112]	; 0x70
  4004bc:	f422 3200 	bic.w	r2, r2, #131072	; 0x20000
  4004c0:	671a      	str	r2, [r3, #112]	; 0x70
  4004c2:	6f5a      	ldr	r2, [r3, #116]	; 0x74
  4004c4:	f442 3200 	orr.w	r2, r2, #131072	; 0x20000
  4004c8:	675a      	str	r2, [r3, #116]	; 0x74
  4004ca:	f44f 3200 	mov.w	r2, #131072	; 0x20000
  4004ce:	605a      	str	r2, [r3, #4]
  4004d0:	4770      	bx	lr
  4004d2:	bf00      	nop
  4004d4:	400e1400 	.word	0x400e1400

004004d8 <PWM_0_CLOCK_init>:
  4004d8:	4b04      	ldr	r3, [pc, #16]	; (4004ec <PWM_0_CLOCK_init+0x14>)
  4004da:	699b      	ldr	r3, [r3, #24]
  4004dc:	2b00      	cmp	r3, #0
  4004de:	db03      	blt.n	4004e8 <PWM_0_CLOCK_init+0x10>
  4004e0:	f04f 4200 	mov.w	r2, #2147483648	; 0x80000000
  4004e4:	4b01      	ldr	r3, [pc, #4]	; (4004ec <PWM_0_CLOCK_init+0x14>)
  4004e6:	611a      	str	r2, [r3, #16]
  4004e8:	4770      	bx	lr
  4004ea:	bf00      	nop
  4004ec:	400e0600 	.word	0x400e0600

004004f0 <PWM_0_init>:
  4004f0:	b508      	push	{r3, lr}
  4004f2:	4b06      	ldr	r3, [pc, #24]	; (40050c <PWM_0_init+0x1c>)
  4004f4:	4798      	blx	r3
  4004f6:	4b06      	ldr	r3, [pc, #24]	; (400510 <PWM_0_init+0x20>)
  4004f8:	4798      	blx	r3
  4004fa:	4b06      	ldr	r3, [pc, #24]	; (400514 <PWM_0_init+0x24>)
  4004fc:	4798      	blx	r3
  4004fe:	4602      	mov	r2, r0
  400500:	4905      	ldr	r1, [pc, #20]	; (400518 <PWM_0_init+0x28>)
  400502:	4806      	ldr	r0, [pc, #24]	; (40051c <PWM_0_init+0x2c>)
  400504:	4b06      	ldr	r3, [pc, #24]	; (400520 <PWM_0_init+0x30>)
  400506:	4798      	blx	r3
  400508:	bd08      	pop	{r3, pc}
  40050a:	bf00      	nop
  40050c:	004004d9 	.word	0x004004d9
  400510:	00400475 	.word	0x00400475
  400514:	004018e5 	.word	0x004018e5
  400518:	40020000 	.word	0x40020000
  40051c:	2040012c 	.word	0x2040012c
  400520:	00400d41 	.word	0x00400d41

00400524 <PWM_1_PORT_init>:
  400524:	4b06      	ldr	r3, [pc, #24]	; (400540 <PWM_1_PORT_init+0x1c>)
  400526:	6f1a      	ldr	r2, [r3, #112]	; 0x70
  400528:	f422 5280 	bic.w	r2, r2, #4096	; 0x1000
  40052c:	671a      	str	r2, [r3, #112]	; 0x70
  40052e:	6f5a      	ldr	r2, [r3, #116]	; 0x74
  400530:	f442 5280 	orr.w	r2, r2, #4096	; 0x1000
  400534:	675a      	str	r2, [r3, #116]	; 0x74
  400536:	f44f 5280 	mov.w	r2, #4096	; 0x1000
  40053a:	605a      	str	r2, [r3, #4]
  40053c:	4770      	bx	lr
  40053e:	bf00      	nop
  400540:	400e0e00 	.word	0x400e0e00

00400544 <PWM_1_CLOCK_init>:
  400544:	4b05      	ldr	r3, [pc, #20]	; (40055c <PWM_1_CLOCK_init+0x18>)
  400546:	f8d3 3108 	ldr.w	r3, [r3, #264]	; 0x108
  40054a:	f013 5f80 	tst.w	r3, #268435456	; 0x10000000
  40054e:	d104      	bne.n	40055a <PWM_1_CLOCK_init+0x16>
  400550:	f04f 5280 	mov.w	r2, #268435456	; 0x10000000
  400554:	4b01      	ldr	r3, [pc, #4]	; (40055c <PWM_1_CLOCK_init+0x18>)
  400556:	f8c3 2100 	str.w	r2, [r3, #256]	; 0x100
  40055a:	4770      	bx	lr
  40055c:	400e0600 	.word	0x400e0600

00400560 <PWM_1_init>:
  400560:	b508      	push	{r3, lr}
  400562:	4b06      	ldr	r3, [pc, #24]	; (40057c <PWM_1_init+0x1c>)
  400564:	4798      	blx	r3
  400566:	4b06      	ldr	r3, [pc, #24]	; (400580 <PWM_1_init+0x20>)
  400568:	4798      	blx	r3
  40056a:	4b06      	ldr	r3, [pc, #24]	; (400584 <PWM_1_init+0x24>)
  40056c:	4798      	blx	r3
  40056e:	4602      	mov	r2, r0
  400570:	4905      	ldr	r1, [pc, #20]	; (400588 <PWM_1_init+0x28>)
  400572:	4806      	ldr	r0, [pc, #24]	; (40058c <PWM_1_init+0x2c>)
  400574:	4b06      	ldr	r3, [pc, #24]	; (400590 <PWM_1_init+0x30>)
  400576:	4798      	blx	r3
  400578:	bd08      	pop	{r3, pc}
  40057a:	bf00      	nop
  40057c:	00400545 	.word	0x00400545
  400580:	00400525 	.word	0x00400525
  400584:	004018e5 	.word	0x004018e5
  400588:	4005c000 	.word	0x4005c000
  40058c:	20400184 	.word	0x20400184
  400590:	00400d41 	.word	0x00400d41

00400594 <SPI_0_PORT_init>:
  400594:	4b11      	ldr	r3, [pc, #68]	; (4005dc <SPI_0_PORT_init+0x48>)
  400596:	6f1a      	ldr	r2, [r3, #112]	; 0x70
  400598:	f442 1280 	orr.w	r2, r2, #1048576	; 0x100000
  40059c:	671a      	str	r2, [r3, #112]	; 0x70
  40059e:	6f5a      	ldr	r2, [r3, #116]	; 0x74
  4005a0:	f422 1280 	bic.w	r2, r2, #1048576	; 0x100000
  4005a4:	675a      	str	r2, [r3, #116]	; 0x74
  4005a6:	f44f 1280 	mov.w	r2, #1048576	; 0x100000
  4005aa:	605a      	str	r2, [r3, #4]
  4005ac:	6f1a      	ldr	r2, [r3, #112]	; 0x70
  4005ae:	f442 1200 	orr.w	r2, r2, #2097152	; 0x200000
  4005b2:	671a      	str	r2, [r3, #112]	; 0x70
  4005b4:	6f5a      	ldr	r2, [r3, #116]	; 0x74
  4005b6:	f422 1200 	bic.w	r2, r2, #2097152	; 0x200000
  4005ba:	675a      	str	r2, [r3, #116]	; 0x74
  4005bc:	f44f 1200 	mov.w	r2, #2097152	; 0x200000
  4005c0:	605a      	str	r2, [r3, #4]
  4005c2:	6f1a      	ldr	r2, [r3, #112]	; 0x70
  4005c4:	f442 0280 	orr.w	r2, r2, #4194304	; 0x400000
  4005c8:	671a      	str	r2, [r3, #112]	; 0x70
  4005ca:	6f5a      	ldr	r2, [r3, #116]	; 0x74
  4005cc:	f422 0280 	bic.w	r2, r2, #4194304	; 0x400000
  4005d0:	675a      	str	r2, [r3, #116]	; 0x74
  4005d2:	f44f 0280 	mov.w	r2, #4194304	; 0x400000
  4005d6:	605a      	str	r2, [r3, #4]
  4005d8:	4770      	bx	lr
  4005da:	bf00      	nop
  4005dc:	400e1400 	.word	0x400e1400

004005e0 <SPI_0_CLOCK_init>:
  4005e0:	4b04      	ldr	r3, [pc, #16]	; (4005f4 <SPI_0_CLOCK_init+0x14>)
  4005e2:	699b      	ldr	r3, [r3, #24]
  4005e4:	f413 1f00 	tst.w	r3, #2097152	; 0x200000
  4005e8:	d103      	bne.n	4005f2 <SPI_0_CLOCK_init+0x12>
  4005ea:	f44f 1200 	mov.w	r2, #2097152	; 0x200000
  4005ee:	4b01      	ldr	r3, [pc, #4]	; (4005f4 <SPI_0_CLOCK_init+0x14>)
  4005f0:	611a      	str	r2, [r3, #16]
  4005f2:	4770      	bx	lr
  4005f4:	400e0600 	.word	0x400e0600

004005f8 <SPI_0_init>:
  4005f8:	b510      	push	{r4, lr}
  4005fa:	4b08      	ldr	r3, [pc, #32]	; (40061c <SPI_0_init+0x24>)
  4005fc:	4798      	blx	r3
  4005fe:	4b08      	ldr	r3, [pc, #32]	; (400620 <SPI_0_init+0x28>)
  400600:	4798      	blx	r3
  400602:	4c08      	ldr	r4, [pc, #32]	; (400624 <SPI_0_init+0x2c>)
  400604:	4601      	mov	r1, r0
  400606:	4620      	mov	r0, r4
  400608:	4b07      	ldr	r3, [pc, #28]	; (400628 <SPI_0_init+0x30>)
  40060a:	4798      	blx	r3
  40060c:	4907      	ldr	r1, [pc, #28]	; (40062c <SPI_0_init+0x34>)
  40060e:	4620      	mov	r0, r4
  400610:	4b07      	ldr	r3, [pc, #28]	; (400630 <SPI_0_init+0x38>)
  400612:	4798      	blx	r3
  400614:	4b07      	ldr	r3, [pc, #28]	; (400634 <SPI_0_init+0x3c>)
  400616:	4798      	blx	r3
  400618:	bd10      	pop	{r4, pc}
  40061a:	bf00      	nop
  40061c:	004005e1 	.word	0x004005e1
  400620:	00401ae5 	.word	0x00401ae5
  400624:	2040016c 	.word	0x2040016c
  400628:	00400dc1 	.word	0x00400dc1
  40062c:	40008000 	.word	0x40008000
  400630:	00400de1 	.word	0x00400de1
  400634:	00400595 	.word	0x00400595

00400638 <I2C_0_PORT_init>:
  400638:	4b0a      	ldr	r3, [pc, #40]	; (400664 <I2C_0_PORT_init+0x2c>)
  40063a:	6f1a      	ldr	r2, [r3, #112]	; 0x70
  40063c:	f022 0210 	bic.w	r2, r2, #16
  400640:	671a      	str	r2, [r3, #112]	; 0x70
  400642:	6f5a      	ldr	r2, [r3, #116]	; 0x74
  400644:	f022 0210 	bic.w	r2, r2, #16
  400648:	675a      	str	r2, [r3, #116]	; 0x74
  40064a:	2210      	movs	r2, #16
  40064c:	605a      	str	r2, [r3, #4]
  40064e:	6f1a      	ldr	r2, [r3, #112]	; 0x70
  400650:	f022 0208 	bic.w	r2, r2, #8
  400654:	671a      	str	r2, [r3, #112]	; 0x70
  400656:	6f5a      	ldr	r2, [r3, #116]	; 0x74
  400658:	f022 0208 	bic.w	r2, r2, #8
  40065c:	675a      	str	r2, [r3, #116]	; 0x74
  40065e:	2208      	movs	r2, #8
  400660:	605a      	str	r2, [r3, #4]
  400662:	4770      	bx	lr
  400664:	400e0e00 	.word	0x400e0e00

00400668 <I2C_0_CLOCK_init>:
  400668:	4b04      	ldr	r3, [pc, #16]	; (40067c <I2C_0_CLOCK_init+0x14>)
  40066a:	699b      	ldr	r3, [r3, #24]
  40066c:	f413 2f00 	tst.w	r3, #524288	; 0x80000
  400670:	d103      	bne.n	40067a <I2C_0_CLOCK_init+0x12>
  400672:	f44f 2200 	mov.w	r2, #524288	; 0x80000
  400676:	4b01      	ldr	r3, [pc, #4]	; (40067c <I2C_0_CLOCK_init+0x14>)
  400678:	611a      	str	r2, [r3, #16]
  40067a:	4770      	bx	lr
  40067c:	400e0600 	.word	0x400e0600

00400680 <I2C_0_init>:
  400680:	b508      	push	{r3, lr}
  400682:	4b04      	ldr	r3, [pc, #16]	; (400694 <I2C_0_init+0x14>)
  400684:	4798      	blx	r3
  400686:	4904      	ldr	r1, [pc, #16]	; (400698 <I2C_0_init+0x18>)
  400688:	4804      	ldr	r0, [pc, #16]	; (40069c <I2C_0_init+0x1c>)
  40068a:	4b05      	ldr	r3, [pc, #20]	; (4006a0 <I2C_0_init+0x20>)
  40068c:	4798      	blx	r3
  40068e:	4b05      	ldr	r3, [pc, #20]	; (4006a4 <I2C_0_init+0x24>)
  400690:	4798      	blx	r3
  400692:	bd08      	pop	{r3, pc}
  400694:	00400669 	.word	0x00400669
  400698:	40018000 	.word	0x40018000
  40069c:	204001a0 	.word	0x204001a0
  4006a0:	00400c8d 	.word	0x00400c8d
  4006a4:	00400639 	.word	0x00400639

004006a8 <delay_driver_init>:
  4006a8:	b508      	push	{r3, lr}
  4006aa:	4802      	ldr	r0, [pc, #8]	; (4006b4 <delay_driver_init+0xc>)
  4006ac:	4b02      	ldr	r3, [pc, #8]	; (4006b8 <delay_driver_init+0x10>)
  4006ae:	4798      	blx	r3
  4006b0:	bd08      	pop	{r3, pc}
  4006b2:	bf00      	nop
  4006b4:	e000e010 	.word	0xe000e010
  4006b8:	00400a91 	.word	0x00400a91

004006bc <WDT_0_init>:
  4006bc:	b508      	push	{r3, lr}
  4006be:	2248      	movs	r2, #72	; 0x48
  4006c0:	4904      	ldr	r1, [pc, #16]	; (4006d4 <WDT_0_init+0x18>)
  4006c2:	2001      	movs	r0, #1
  4006c4:	4b04      	ldr	r3, [pc, #16]	; (4006d8 <WDT_0_init+0x1c>)
  4006c6:	4798      	blx	r3
  4006c8:	4804      	ldr	r0, [pc, #16]	; (4006dc <WDT_0_init+0x20>)
  4006ca:	4b05      	ldr	r3, [pc, #20]	; (4006e0 <WDT_0_init+0x24>)
  4006cc:	6003      	str	r3, [r0, #0]
  4006ce:	4b05      	ldr	r3, [pc, #20]	; (4006e4 <WDT_0_init+0x28>)
  4006d0:	4798      	blx	r3
  4006d2:	bd08      	pop	{r3, pc}
  4006d4:	004030e8 	.word	0x004030e8
  4006d8:	00401115 	.word	0x00401115
  4006dc:	2040014c 	.word	0x2040014c
  4006e0:	400e1850 	.word	0x400e1850
  4006e4:	00401ebd 	.word	0x00401ebd

004006e8 <system_init>:
  4006e8:	b510      	push	{r4, lr}
  4006ea:	4b67      	ldr	r3, [pc, #412]	; (400888 <system_init+0x1a0>)
  4006ec:	4798      	blx	r3
  4006ee:	4b67      	ldr	r3, [pc, #412]	; (40088c <system_init+0x1a4>)
  4006f0:	699b      	ldr	r3, [r3, #24]
  4006f2:	f413 6f80 	tst.w	r3, #1024	; 0x400
  4006f6:	d103      	bne.n	400700 <system_init+0x18>
  4006f8:	f44f 6280 	mov.w	r2, #1024	; 0x400
  4006fc:	4b63      	ldr	r3, [pc, #396]	; (40088c <system_init+0x1a4>)
  4006fe:	611a      	str	r2, [r3, #16]
  400700:	4b62      	ldr	r3, [pc, #392]	; (40088c <system_init+0x1a4>)
  400702:	699b      	ldr	r3, [r3, #24]
  400704:	f413 6f00 	tst.w	r3, #2048	; 0x800
  400708:	d103      	bne.n	400712 <system_init+0x2a>
  40070a:	f44f 6200 	mov.w	r2, #2048	; 0x800
  40070e:	4b5f      	ldr	r3, [pc, #380]	; (40088c <system_init+0x1a4>)
  400710:	611a      	str	r2, [r3, #16]
  400712:	4b5e      	ldr	r3, [pc, #376]	; (40088c <system_init+0x1a4>)
  400714:	699b      	ldr	r3, [r3, #24]
  400716:	f413 3f80 	tst.w	r3, #65536	; 0x10000
  40071a:	d103      	bne.n	400724 <system_init+0x3c>
  40071c:	f44f 3280 	mov.w	r2, #65536	; 0x10000
  400720:	4b5a      	ldr	r3, [pc, #360]	; (40088c <system_init+0x1a4>)
  400722:	611a      	str	r2, [r3, #16]
  400724:	4b5a      	ldr	r3, [pc, #360]	; (400890 <system_init+0x1a8>)
  400726:	f04f 6100 	mov.w	r1, #134217728	; 0x8000000
  40072a:	6159      	str	r1, [r3, #20]
  40072c:	6619      	str	r1, [r3, #96]	; 0x60
  40072e:	f8c3 1090 	str.w	r1, [r3, #144]	; 0x90
  400732:	6019      	str	r1, [r3, #0]
  400734:	f04f 5280 	mov.w	r2, #268435456	; 0x10000000
  400738:	615a      	str	r2, [r3, #20]
  40073a:	661a      	str	r2, [r3, #96]	; 0x60
  40073c:	f8c3 2090 	str.w	r2, [r3, #144]	; 0x90
  400740:	601a      	str	r2, [r3, #0]
  400742:	f04f 4080 	mov.w	r0, #1073741824	; 0x40000000
  400746:	6158      	str	r0, [r3, #20]
  400748:	6618      	str	r0, [r3, #96]	; 0x60
  40074a:	f8c3 0090 	str.w	r0, [r3, #144]	; 0x90
  40074e:	6018      	str	r0, [r3, #0]
  400750:	f04f 4000 	mov.w	r0, #2147483648	; 0x80000000
  400754:	6158      	str	r0, [r3, #20]
  400756:	6618      	str	r0, [r3, #96]	; 0x60
  400758:	f8c3 0090 	str.w	r0, [r3, #144]	; 0x90
  40075c:	6018      	str	r0, [r3, #0]
  40075e:	f503 7300 	add.w	r3, r3, #512	; 0x200
  400762:	2008      	movs	r0, #8
  400764:	6318      	str	r0, [r3, #48]	; 0x30
  400766:	6118      	str	r0, [r3, #16]
  400768:	6018      	str	r0, [r3, #0]
  40076a:	f503 6380 	add.w	r3, r3, #1024	; 0x400
  40076e:	2404      	movs	r4, #4
  400770:	631c      	str	r4, [r3, #48]	; 0x30
  400772:	611c      	str	r4, [r3, #16]
  400774:	601c      	str	r4, [r3, #0]
  400776:	6318      	str	r0, [r3, #48]	; 0x30
  400778:	6118      	str	r0, [r3, #16]
  40077a:	6018      	str	r0, [r3, #0]
  40077c:	2010      	movs	r0, #16
  40077e:	6358      	str	r0, [r3, #52]	; 0x34
  400780:	6118      	str	r0, [r3, #16]
  400782:	6018      	str	r0, [r3, #0]
  400784:	2020      	movs	r0, #32
  400786:	6358      	str	r0, [r3, #52]	; 0x34
  400788:	6118      	str	r0, [r3, #16]
  40078a:	6018      	str	r0, [r3, #0]
  40078c:	2040      	movs	r0, #64	; 0x40
  40078e:	6358      	str	r0, [r3, #52]	; 0x34
  400790:	6118      	str	r0, [r3, #16]
  400792:	6018      	str	r0, [r3, #0]
  400794:	2080      	movs	r0, #128	; 0x80
  400796:	6358      	str	r0, [r3, #52]	; 0x34
  400798:	6118      	str	r0, [r3, #16]
  40079a:	6018      	str	r0, [r3, #0]
  40079c:	f44f 7080 	mov.w	r0, #256	; 0x100
  4007a0:	6358      	str	r0, [r3, #52]	; 0x34
  4007a2:	6118      	str	r0, [r3, #16]
  4007a4:	6018      	str	r0, [r3, #0]
  4007a6:	f44f 7000 	mov.w	r0, #512	; 0x200
  4007aa:	6358      	str	r0, [r3, #52]	; 0x34
  4007ac:	6118      	str	r0, [r3, #16]
  4007ae:	6018      	str	r0, [r3, #0]
  4007b0:	f44f 6080 	mov.w	r0, #1024	; 0x400
  4007b4:	6358      	str	r0, [r3, #52]	; 0x34
  4007b6:	6118      	str	r0, [r3, #16]
  4007b8:	6018      	str	r0, [r3, #0]
  4007ba:	f44f 5080 	mov.w	r0, #4096	; 0x1000
  4007be:	6158      	str	r0, [r3, #20]
  4007c0:	6618      	str	r0, [r3, #96]	; 0x60
  4007c2:	f8c3 0090 	str.w	r0, [r3, #144]	; 0x90
  4007c6:	6018      	str	r0, [r3, #0]
  4007c8:	f44f 5000 	mov.w	r0, #8192	; 0x2000
  4007cc:	6158      	str	r0, [r3, #20]
  4007ce:	6618      	str	r0, [r3, #96]	; 0x60
  4007d0:	f8c3 0090 	str.w	r0, [r3, #144]	; 0x90
  4007d4:	6018      	str	r0, [r3, #0]
  4007d6:	f44f 4080 	mov.w	r0, #16384	; 0x4000
  4007da:	6158      	str	r0, [r3, #20]
  4007dc:	6618      	str	r0, [r3, #96]	; 0x60
  4007de:	f8c3 0090 	str.w	r0, [r3, #144]	; 0x90
  4007e2:	6018      	str	r0, [r3, #0]
  4007e4:	f44f 4000 	mov.w	r0, #32768	; 0x8000
  4007e8:	6158      	str	r0, [r3, #20]
  4007ea:	6618      	str	r0, [r3, #96]	; 0x60
  4007ec:	f8c3 0090 	str.w	r0, [r3, #144]	; 0x90
  4007f0:	6018      	str	r0, [r3, #0]
  4007f2:	f44f 3080 	mov.w	r0, #65536	; 0x10000
  4007f6:	6158      	str	r0, [r3, #20]
  4007f8:	6618      	str	r0, [r3, #96]	; 0x60
  4007fa:	f8c3 0090 	str.w	r0, [r3, #144]	; 0x90
  4007fe:	6018      	str	r0, [r3, #0]
  400800:	f44f 3000 	mov.w	r0, #131072	; 0x20000
  400804:	6158      	str	r0, [r3, #20]
  400806:	6618      	str	r0, [r3, #96]	; 0x60
  400808:	f8c3 0090 	str.w	r0, [r3, #144]	; 0x90
  40080c:	6018      	str	r0, [r3, #0]
  40080e:	f44f 2080 	mov.w	r0, #262144	; 0x40000
  400812:	6158      	str	r0, [r3, #20]
  400814:	6618      	str	r0, [r3, #96]	; 0x60
  400816:	f8c3 0090 	str.w	r0, [r3, #144]	; 0x90
  40081a:	6018      	str	r0, [r3, #0]
  40081c:	f44f 2000 	mov.w	r0, #524288	; 0x80000
  400820:	6158      	str	r0, [r3, #20]
  400822:	6618      	str	r0, [r3, #96]	; 0x60
  400824:	f8c3 0090 	str.w	r0, [r3, #144]	; 0x90
  400828:	6018      	str	r0, [r3, #0]
  40082a:	f04f 7080 	mov.w	r0, #16777216	; 0x1000000
  40082e:	6358      	str	r0, [r3, #52]	; 0x34
  400830:	6118      	str	r0, [r3, #16]
  400832:	6018      	str	r0, [r3, #0]
  400834:	f04f 7000 	mov.w	r0, #33554432	; 0x2000000
  400838:	6358      	str	r0, [r3, #52]	; 0x34
  40083a:	6118      	str	r0, [r3, #16]
  40083c:	6018      	str	r0, [r3, #0]
  40083e:	f04f 6080 	mov.w	r0, #67108864	; 0x4000000
  400842:	6358      	str	r0, [r3, #52]	; 0x34
  400844:	6118      	str	r0, [r3, #16]
  400846:	6018      	str	r0, [r3, #0]
  400848:	6359      	str	r1, [r3, #52]	; 0x34
  40084a:	6119      	str	r1, [r3, #16]
  40084c:	6019      	str	r1, [r3, #0]
  40084e:	635a      	str	r2, [r3, #52]	; 0x34
  400850:	611a      	str	r2, [r3, #16]
  400852:	601a      	str	r2, [r3, #0]
  400854:	4b0f      	ldr	r3, [pc, #60]	; (400894 <system_init+0x1ac>)
  400856:	4798      	blx	r3
  400858:	4b0f      	ldr	r3, [pc, #60]	; (400898 <system_init+0x1b0>)
  40085a:	4798      	blx	r3
  40085c:	4b0f      	ldr	r3, [pc, #60]	; (40089c <system_init+0x1b4>)
  40085e:	4798      	blx	r3
  400860:	4b0f      	ldr	r3, [pc, #60]	; (4008a0 <system_init+0x1b8>)
  400862:	4798      	blx	r3
  400864:	4b0f      	ldr	r3, [pc, #60]	; (4008a4 <system_init+0x1bc>)
  400866:	4798      	blx	r3
  400868:	4b0f      	ldr	r3, [pc, #60]	; (4008a8 <system_init+0x1c0>)
  40086a:	4798      	blx	r3
  40086c:	4b0f      	ldr	r3, [pc, #60]	; (4008ac <system_init+0x1c4>)
  40086e:	4798      	blx	r3
  400870:	4b0f      	ldr	r3, [pc, #60]	; (4008b0 <system_init+0x1c8>)
  400872:	4798      	blx	r3
  400874:	4b0f      	ldr	r3, [pc, #60]	; (4008b4 <system_init+0x1cc>)
  400876:	4798      	blx	r3
  400878:	4b0f      	ldr	r3, [pc, #60]	; (4008b8 <system_init+0x1d0>)
  40087a:	4798      	blx	r3
  40087c:	4b0f      	ldr	r3, [pc, #60]	; (4008bc <system_init+0x1d4>)
  40087e:	4798      	blx	r3
  400880:	4b0f      	ldr	r3, [pc, #60]	; (4008c0 <system_init+0x1d8>)
  400882:	4798      	blx	r3
  400884:	bd10      	pop	{r4, pc}
  400886:	bf00      	nop
  400888:	004012d1 	.word	0x004012d1
  40088c:	400e0600 	.word	0x400e0600
  400890:	400e0e00 	.word	0x400e0e00
  400894:	004003e5 	.word	0x004003e5
  400898:	00400411 	.word	0x00400411
  40089c:	00400425 	.word	0x00400425
  4008a0:	004004f1 	.word	0x004004f1
  4008a4:	00400561 	.word	0x00400561
  4008a8:	004005f9 	.word	0x004005f9
  4008ac:	0040033d 	.word	0x0040033d
  4008b0:	00400375 	.word	0x00400375
  4008b4:	00400681 	.word	0x00400681
  4008b8:	004006a9 	.word	0x004006a9
  4008bc:	004006bd 	.word	0x004006bd
  4008c0:	00400b29 	.word	0x00400b29

004008c4 <interrupt_front_left>:
  4008c4:	b538      	push	{r3, r4, r5, lr}
  4008c6:	4b0c      	ldr	r3, [pc, #48]	; (4008f8 <interrupt_front_left+0x34>)
  4008c8:	6bdb      	ldr	r3, [r3, #60]	; 0x3c
  4008ca:	f013 5f80 	tst.w	r3, #268435456	; 0x10000000
  4008ce:	d109      	bne.n	4008e4 <interrupt_front_left+0x20>
  4008d0:	4c0a      	ldr	r4, [pc, #40]	; (4008fc <interrupt_front_left+0x38>)
  4008d2:	2200      	movs	r2, #0
  4008d4:	4b0a      	ldr	r3, [pc, #40]	; (400900 <interrupt_front_left+0x3c>)
  4008d6:	e9d4 0100 	ldrd	r0, r1, [r4]
  4008da:	4d0a      	ldr	r5, [pc, #40]	; (400904 <interrupt_front_left+0x40>)
  4008dc:	47a8      	blx	r5
  4008de:	e9c4 0100 	strd	r0, r1, [r4]
  4008e2:	bd38      	pop	{r3, r4, r5, pc}
  4008e4:	4c05      	ldr	r4, [pc, #20]	; (4008fc <interrupt_front_left+0x38>)
  4008e6:	2200      	movs	r2, #0
  4008e8:	4b05      	ldr	r3, [pc, #20]	; (400900 <interrupt_front_left+0x3c>)
  4008ea:	e9d4 0100 	ldrd	r0, r1, [r4]
  4008ee:	4d06      	ldr	r5, [pc, #24]	; (400908 <interrupt_front_left+0x44>)
  4008f0:	47a8      	blx	r5
  4008f2:	e9c4 0100 	strd	r0, r1, [r4]
  4008f6:	bd38      	pop	{r3, r4, r5, pc}
  4008f8:	400e0e00 	.word	0x400e0e00
  4008fc:	20400070 	.word	0x20400070
  400900:	3ff00000 	.word	0x3ff00000
  400904:	00402865 	.word	0x00402865
  400908:	00402869 	.word	0x00402869

0040090c <interrupt_front_right>:
  40090c:	b538      	push	{r3, r4, r5, lr}
  40090e:	4b0c      	ldr	r3, [pc, #48]	; (400940 <interrupt_front_right+0x34>)
  400910:	6bdb      	ldr	r3, [r3, #60]	; 0x3c
  400912:	2b00      	cmp	r3, #0
  400914:	db09      	blt.n	40092a <interrupt_front_right+0x1e>
  400916:	4c0b      	ldr	r4, [pc, #44]	; (400944 <interrupt_front_right+0x38>)
  400918:	2200      	movs	r2, #0
  40091a:	4b0b      	ldr	r3, [pc, #44]	; (400948 <interrupt_front_right+0x3c>)
  40091c:	e9d4 0102 	ldrd	r0, r1, [r4, #8]
  400920:	4d0a      	ldr	r5, [pc, #40]	; (40094c <interrupt_front_right+0x40>)
  400922:	47a8      	blx	r5
  400924:	e9c4 0102 	strd	r0, r1, [r4, #8]
  400928:	bd38      	pop	{r3, r4, r5, pc}
  40092a:	4c06      	ldr	r4, [pc, #24]	; (400944 <interrupt_front_right+0x38>)
  40092c:	2200      	movs	r2, #0
  40092e:	4b06      	ldr	r3, [pc, #24]	; (400948 <interrupt_front_right+0x3c>)
  400930:	e9d4 0102 	ldrd	r0, r1, [r4, #8]
  400934:	4d06      	ldr	r5, [pc, #24]	; (400950 <interrupt_front_right+0x44>)
  400936:	47a8      	blx	r5
  400938:	e9c4 0102 	strd	r0, r1, [r4, #8]
  40093c:	bd38      	pop	{r3, r4, r5, pc}
  40093e:	bf00      	nop
  400940:	400e0e00 	.word	0x400e0e00
  400944:	20400070 	.word	0x20400070
  400948:	3ff00000 	.word	0x3ff00000
  40094c:	00402865 	.word	0x00402865
  400950:	00402869 	.word	0x00402869

00400954 <interrupt_back_left>:
  400954:	b538      	push	{r3, r4, r5, lr}
  400956:	4b0c      	ldr	r3, [pc, #48]	; (400988 <interrupt_back_left+0x34>)
  400958:	6bdb      	ldr	r3, [r3, #60]	; 0x3c
  40095a:	f013 6f00 	tst.w	r3, #134217728	; 0x8000000
  40095e:	d109      	bne.n	400974 <interrupt_back_left+0x20>
  400960:	4c0a      	ldr	r4, [pc, #40]	; (40098c <interrupt_back_left+0x38>)
  400962:	2200      	movs	r2, #0
  400964:	4b0a      	ldr	r3, [pc, #40]	; (400990 <interrupt_back_left+0x3c>)
  400966:	e9d4 0104 	ldrd	r0, r1, [r4, #16]
  40096a:	4d0a      	ldr	r5, [pc, #40]	; (400994 <interrupt_back_left+0x40>)
  40096c:	47a8      	blx	r5
  40096e:	e9c4 0104 	strd	r0, r1, [r4, #16]
  400972:	bd38      	pop	{r3, r4, r5, pc}
  400974:	4c05      	ldr	r4, [pc, #20]	; (40098c <interrupt_back_left+0x38>)
  400976:	2200      	movs	r2, #0
  400978:	4b05      	ldr	r3, [pc, #20]	; (400990 <interrupt_back_left+0x3c>)
  40097a:	e9d4 0104 	ldrd	r0, r1, [r4, #16]
  40097e:	4d06      	ldr	r5, [pc, #24]	; (400998 <interrupt_back_left+0x44>)
  400980:	47a8      	blx	r5
  400982:	e9c4 0104 	strd	r0, r1, [r4, #16]
  400986:	bd38      	pop	{r3, r4, r5, pc}
  400988:	400e0e00 	.word	0x400e0e00
  40098c:	20400070 	.word	0x20400070
  400990:	3ff00000 	.word	0x3ff00000
  400994:	00402865 	.word	0x00402865
  400998:	00402869 	.word	0x00402869

0040099c <interrupt_back_right>:
  40099c:	b538      	push	{r3, r4, r5, lr}
  40099e:	4b0c      	ldr	r3, [pc, #48]	; (4009d0 <interrupt_back_right+0x34>)
  4009a0:	6bdb      	ldr	r3, [r3, #60]	; 0x3c
  4009a2:	f013 4f80 	tst.w	r3, #1073741824	; 0x40000000
  4009a6:	d109      	bne.n	4009bc <interrupt_back_right+0x20>
  4009a8:	4c0a      	ldr	r4, [pc, #40]	; (4009d4 <interrupt_back_right+0x38>)
  4009aa:	2200      	movs	r2, #0
  4009ac:	4b0a      	ldr	r3, [pc, #40]	; (4009d8 <interrupt_back_right+0x3c>)
  4009ae:	e9d4 0106 	ldrd	r0, r1, [r4, #24]
  4009b2:	4d0a      	ldr	r5, [pc, #40]	; (4009dc <interrupt_back_right+0x40>)
  4009b4:	47a8      	blx	r5
  4009b6:	e9c4 0106 	strd	r0, r1, [r4, #24]
  4009ba:	bd38      	pop	{r3, r4, r5, pc}
  4009bc:	4c05      	ldr	r4, [pc, #20]	; (4009d4 <interrupt_back_right+0x38>)
  4009be:	2200      	movs	r2, #0
  4009c0:	4b05      	ldr	r3, [pc, #20]	; (4009d8 <interrupt_back_right+0x3c>)
  4009c2:	e9d4 0106 	ldrd	r0, r1, [r4, #24]
  4009c6:	4d06      	ldr	r5, [pc, #24]	; (4009e0 <interrupt_back_right+0x44>)
  4009c8:	47a8      	blx	r5
  4009ca:	e9c4 0106 	strd	r0, r1, [r4, #24]
  4009ce:	bd38      	pop	{r3, r4, r5, pc}
  4009d0:	400e0e00 	.word	0x400e0e00
  4009d4:	20400070 	.word	0x20400070
  4009d8:	3ff00000 	.word	0x3ff00000
  4009dc:	00402865 	.word	0x00402865
  4009e0:	00402869 	.word	0x00402869

004009e4 <encoders_init>:
  4009e4:	b510      	push	{r4, lr}
  4009e6:	4907      	ldr	r1, [pc, #28]	; (400a04 <encoders_init+0x20>)
  4009e8:	2016      	movs	r0, #22
  4009ea:	4c07      	ldr	r4, [pc, #28]	; (400a08 <encoders_init+0x24>)
  4009ec:	47a0      	blx	r4
  4009ee:	4907      	ldr	r1, [pc, #28]	; (400a0c <encoders_init+0x28>)
  4009f0:	2017      	movs	r0, #23
  4009f2:	47a0      	blx	r4
  4009f4:	4906      	ldr	r1, [pc, #24]	; (400a10 <encoders_init+0x2c>)
  4009f6:	2018      	movs	r0, #24
  4009f8:	47a0      	blx	r4
  4009fa:	4906      	ldr	r1, [pc, #24]	; (400a14 <encoders_init+0x30>)
  4009fc:	2019      	movs	r0, #25
  4009fe:	47a0      	blx	r4
  400a00:	bd10      	pop	{r4, pc}
  400a02:	bf00      	nop
  400a04:	00400955 	.word	0x00400955
  400a08:	00400b5d 	.word	0x00400b5d
  400a0c:	004008c5 	.word	0x004008c5
  400a10:	0040099d 	.word	0x0040099d
  400a14:	0040090d 	.word	0x0040090d

00400a18 <adc_sync_init>:
  400a18:	b538      	push	{r3, r4, r5, lr}
  400a1a:	4604      	mov	r4, r0
  400a1c:	460d      	mov	r5, r1
  400a1e:	2800      	cmp	r0, #0
  400a20:	bf18      	it	ne
  400a22:	2900      	cmpne	r1, #0
  400a24:	bf14      	ite	ne
  400a26:	2001      	movne	r0, #1
  400a28:	2000      	moveq	r0, #0
  400a2a:	2239      	movs	r2, #57	; 0x39
  400a2c:	4903      	ldr	r1, [pc, #12]	; (400a3c <adc_sync_init+0x24>)
  400a2e:	4b04      	ldr	r3, [pc, #16]	; (400a40 <adc_sync_init+0x28>)
  400a30:	4798      	blx	r3
  400a32:	4629      	mov	r1, r5
  400a34:	4620      	mov	r0, r4
  400a36:	4b03      	ldr	r3, [pc, #12]	; (400a44 <adc_sync_init+0x2c>)
  400a38:	4798      	blx	r3
  400a3a:	bd38      	pop	{r3, r4, r5, pc}
  400a3c:	00403104 	.word	0x00403104
  400a40:	00401115 	.word	0x00401115
  400a44:	00401251 	.word	0x00401251

00400a48 <adc_sync_enable_channel>:
  400a48:	b538      	push	{r3, r4, r5, lr}
  400a4a:	460d      	mov	r5, r1
  400a4c:	4604      	mov	r4, r0
  400a4e:	224e      	movs	r2, #78	; 0x4e
  400a50:	4905      	ldr	r1, [pc, #20]	; (400a68 <adc_sync_enable_channel+0x20>)
  400a52:	3000      	adds	r0, #0
  400a54:	bf18      	it	ne
  400a56:	2001      	movne	r0, #1
  400a58:	4b04      	ldr	r3, [pc, #16]	; (400a6c <adc_sync_enable_channel+0x24>)
  400a5a:	4798      	blx	r3
  400a5c:	4629      	mov	r1, r5
  400a5e:	4620      	mov	r0, r4
  400a60:	4b03      	ldr	r3, [pc, #12]	; (400a70 <adc_sync_enable_channel+0x28>)
  400a62:	4798      	blx	r3
  400a64:	2000      	movs	r0, #0
  400a66:	bd38      	pop	{r3, r4, r5, pc}
  400a68:	00403104 	.word	0x00403104
  400a6c:	00401115 	.word	0x00401115
  400a70:	00401289 	.word	0x00401289

00400a74 <atomic_enter_critical>:
 */
__STATIC_FORCEINLINE uint32_t __get_PRIMASK(void)
{
  uint32_t result;

  __ASM volatile ("MRS %0, primask" : "=r" (result) :: "memory");
  400a74:	f3ef 8310 	mrs	r3, PRIMASK
  400a78:	6003      	str	r3, [r0, #0]
  __ASM volatile ("cpsid i" : : : "memory");
  400a7a:	b672      	cpsid	i
  \details Ensures the apparent order of the explicit memory operations before
           and after the instruction, without ensuring their completion.
 */
__STATIC_FORCEINLINE void __DMB(void)
{
  __ASM volatile ("dmb 0xF":::"memory");
  400a7c:	f3bf 8f5f 	dmb	sy
  400a80:	4770      	bx	lr

00400a82 <atomic_leave_critical>:
  400a82:	f3bf 8f5f 	dmb	sy
  400a86:	6803      	ldr	r3, [r0, #0]
  __ASM volatile ("MSR primask, %0" : : "r" (priMask) : "memory");
  400a88:	f383 8810 	msr	PRIMASK, r3
  400a8c:	4770      	bx	lr
	...

00400a90 <delay_init>:
  400a90:	b508      	push	{r3, lr}
  400a92:	4b02      	ldr	r3, [pc, #8]	; (400a9c <delay_init+0xc>)
  400a94:	6018      	str	r0, [r3, #0]
  400a96:	4b02      	ldr	r3, [pc, #8]	; (400aa0 <delay_init+0x10>)
  400a98:	4798      	blx	r3
  400a9a:	bd08      	pop	{r3, pc}
  400a9c:	20400090 	.word	0x20400090
  400aa0:	00401afd 	.word	0x00401afd

00400aa4 <delay_us>:
  400aa4:	b510      	push	{r4, lr}
  400aa6:	4b04      	ldr	r3, [pc, #16]	; (400ab8 <delay_us+0x14>)
  400aa8:	681c      	ldr	r4, [r3, #0]
  400aaa:	4b04      	ldr	r3, [pc, #16]	; (400abc <delay_us+0x18>)
  400aac:	4798      	blx	r3
  400aae:	4601      	mov	r1, r0
  400ab0:	4620      	mov	r0, r4
  400ab2:	4b03      	ldr	r3, [pc, #12]	; (400ac0 <delay_us+0x1c>)
  400ab4:	4798      	blx	r3
  400ab6:	bd10      	pop	{r4, pc}
  400ab8:	20400090 	.word	0x20400090
  400abc:	004012b5 	.word	0x004012b5
  400ac0:	00401b09 	.word	0x00401b09

00400ac4 <delay_ms>:
  400ac4:	b510      	push	{r4, lr}
  400ac6:	4b04      	ldr	r3, [pc, #16]	; (400ad8 <delay_ms+0x14>)
  400ac8:	681c      	ldr	r4, [r3, #0]
  400aca:	4b04      	ldr	r3, [pc, #16]	; (400adc <delay_ms+0x18>)
  400acc:	4798      	blx	r3
  400ace:	4601      	mov	r1, r0
  400ad0:	4620      	mov	r0, r4
  400ad2:	4b03      	ldr	r3, [pc, #12]	; (400ae0 <delay_ms+0x1c>)
  400ad4:	4798      	blx	r3
  400ad6:	bd10      	pop	{r4, pc}
  400ad8:	20400090 	.word	0x20400090
  400adc:	004012bf 	.word	0x004012bf
  400ae0:	00401b09 	.word	0x00401b09

00400ae4 <process_ext_irq>:
  400ae4:	b538      	push	{r3, r4, r5, lr}
  400ae6:	2506      	movs	r5, #6
  400ae8:	2400      	movs	r4, #0
  400aea:	e007      	b.n	400afc <process_ext_irq+0x18>
  400aec:	4a0d      	ldr	r2, [pc, #52]	; (400b24 <process_ext_irq+0x40>)
  400aee:	f852 3033 	ldr.w	r3, [r2, r3, lsl #3]
  400af2:	b1b3      	cbz	r3, 400b22 <process_ext_irq+0x3e>
  400af4:	4798      	blx	r3
  400af6:	bd38      	pop	{r3, r4, r5, pc}
  400af8:	3a01      	subs	r2, #1
  400afa:	b2d5      	uxtb	r5, r2
  400afc:	42ac      	cmp	r4, r5
  400afe:	d810      	bhi.n	400b22 <process_ext_irq+0x3e>
  400b00:	192b      	adds	r3, r5, r4
  400b02:	105b      	asrs	r3, r3, #1
  400b04:	b2da      	uxtb	r2, r3
  400b06:	2a05      	cmp	r2, #5
  400b08:	d80b      	bhi.n	400b22 <process_ext_irq+0x3e>
  400b0a:	4613      	mov	r3, r2
  400b0c:	4905      	ldr	r1, [pc, #20]	; (400b24 <process_ext_irq+0x40>)
  400b0e:	eb01 01c2 	add.w	r1, r1, r2, lsl #3
  400b12:	6849      	ldr	r1, [r1, #4]
  400b14:	4281      	cmp	r1, r0
  400b16:	d0e9      	beq.n	400aec <process_ext_irq+0x8>
  400b18:	4281      	cmp	r1, r0
  400b1a:	d2ed      	bcs.n	400af8 <process_ext_irq+0x14>
  400b1c:	3201      	adds	r2, #1
  400b1e:	b2d4      	uxtb	r4, r2
  400b20:	e7ec      	b.n	400afc <process_ext_irq+0x18>
  400b22:	bd38      	pop	{r3, r4, r5, pc}
  400b24:	20400094 	.word	0x20400094

00400b28 <ext_irq_init>:
  400b28:	b508      	push	{r3, lr}
  400b2a:	2300      	movs	r3, #0
  400b2c:	e00a      	b.n	400b44 <ext_irq_init+0x1c>
  400b2e:	4a08      	ldr	r2, [pc, #32]	; (400b50 <ext_irq_init+0x28>)
  400b30:	eb02 01c3 	add.w	r1, r2, r3, lsl #3
  400b34:	f04f 30ff 	mov.w	r0, #4294967295
  400b38:	6048      	str	r0, [r1, #4]
  400b3a:	2100      	movs	r1, #0
  400b3c:	f842 1033 	str.w	r1, [r2, r3, lsl #3]
  400b40:	3301      	adds	r3, #1
  400b42:	b29b      	uxth	r3, r3
  400b44:	2b05      	cmp	r3, #5
  400b46:	d9f2      	bls.n	400b2e <ext_irq_init+0x6>
  400b48:	4802      	ldr	r0, [pc, #8]	; (400b54 <ext_irq_init+0x2c>)
  400b4a:	4b03      	ldr	r3, [pc, #12]	; (400b58 <ext_irq_init+0x30>)
  400b4c:	4798      	blx	r3
  400b4e:	bd08      	pop	{r3, pc}
  400b50:	20400094 	.word	0x20400094
  400b54:	00400ae5 	.word	0x00400ae5
  400b58:	00401559 	.word	0x00401559

00400b5c <ext_irq_register>:
  400b5c:	b5f0      	push	{r4, r5, r6, r7, lr}
  400b5e:	b083      	sub	sp, #12
  400b60:	4605      	mov	r5, r0
  400b62:	2300      	movs	r3, #0
  400b64:	2b05      	cmp	r3, #5
  400b66:	d80e      	bhi.n	400b86 <ext_irq_register+0x2a>
  400b68:	4618      	mov	r0, r3
  400b6a:	4a2e      	ldr	r2, [pc, #184]	; (400c24 <ext_irq_register+0xc8>)
  400b6c:	eb02 02c3 	add.w	r2, r2, r3, lsl #3
  400b70:	6852      	ldr	r2, [r2, #4]
  400b72:	42aa      	cmp	r2, r5
  400b74:	d002      	beq.n	400b7c <ext_irq_register+0x20>
  400b76:	3301      	adds	r3, #1
  400b78:	b2db      	uxtb	r3, r3
  400b7a:	e7f3      	b.n	400b64 <ext_irq_register+0x8>
  400b7c:	4b29      	ldr	r3, [pc, #164]	; (400c24 <ext_irq_register+0xc8>)
  400b7e:	f843 1030 	str.w	r1, [r3, r0, lsl #3]
  400b82:	2701      	movs	r7, #1
  400b84:	e000      	b.n	400b88 <ext_irq_register+0x2c>
  400b86:	2700      	movs	r7, #0
  400b88:	b159      	cbz	r1, 400ba2 <ext_irq_register+0x46>
  400b8a:	2f00      	cmp	r7, #0
  400b8c:	d13d      	bne.n	400c0a <ext_irq_register+0xae>
  400b8e:	2600      	movs	r6, #0
  400b90:	2e05      	cmp	r6, #5
  400b92:	d813      	bhi.n	400bbc <ext_irq_register+0x60>
  400b94:	4b23      	ldr	r3, [pc, #140]	; (400c24 <ext_irq_register+0xc8>)
  400b96:	f853 3036 	ldr.w	r3, [r3, r6, lsl #3]
  400b9a:	b143      	cbz	r3, 400bae <ext_irq_register+0x52>
  400b9c:	3601      	adds	r6, #1
  400b9e:	b2f6      	uxtb	r6, r6
  400ba0:	e7f6      	b.n	400b90 <ext_irq_register+0x34>
  400ba2:	2f00      	cmp	r7, #0
  400ba4:	d038      	beq.n	400c18 <ext_irq_register+0xbc>
  400ba6:	4628      	mov	r0, r5
  400ba8:	4b1f      	ldr	r3, [pc, #124]	; (400c28 <ext_irq_register+0xcc>)
  400baa:	4798      	blx	r3
  400bac:	e032      	b.n	400c14 <ext_irq_register+0xb8>
  400bae:	4b1d      	ldr	r3, [pc, #116]	; (400c24 <ext_irq_register+0xc8>)
  400bb0:	f843 1036 	str.w	r1, [r3, r6, lsl #3]
  400bb4:	eb03 02c6 	add.w	r2, r3, r6, lsl #3
  400bb8:	6055      	str	r5, [r2, #4]
  400bba:	2701      	movs	r7, #1
  400bbc:	2300      	movs	r3, #0
  400bbe:	e001      	b.n	400bc4 <ext_irq_register+0x68>
  400bc0:	3301      	adds	r3, #1
  400bc2:	b2db      	uxtb	r3, r3
  400bc4:	2b05      	cmp	r3, #5
  400bc6:	bf98      	it	ls
  400bc8:	2e05      	cmpls	r6, #5
  400bca:	d81e      	bhi.n	400c0a <ext_irq_register+0xae>
  400bcc:	46b6      	mov	lr, r6
  400bce:	4a15      	ldr	r2, [pc, #84]	; (400c24 <ext_irq_register+0xc8>)
  400bd0:	eb02 01c6 	add.w	r1, r2, r6, lsl #3
  400bd4:	6848      	ldr	r0, [r1, #4]
  400bd6:	eb02 02c3 	add.w	r2, r2, r3, lsl #3
  400bda:	6852      	ldr	r2, [r2, #4]
  400bdc:	4290      	cmp	r0, r2
  400bde:	d2ef      	bcs.n	400bc0 <ext_irq_register+0x64>
  400be0:	f1b2 3fff 	cmp.w	r2, #4294967295
  400be4:	d0ec      	beq.n	400bc0 <ext_irq_register+0x64>
  400be6:	4c0f      	ldr	r4, [pc, #60]	; (400c24 <ext_irq_register+0xc8>)
  400be8:	eb04 02c3 	add.w	r2, r4, r3, lsl #3
  400bec:	e892 0003 	ldmia.w	r2, {r0, r1}
  400bf0:	e88d 0003 	stmia.w	sp, {r0, r1}
  400bf4:	eb04 04c6 	add.w	r4, r4, r6, lsl #3
  400bf8:	e894 0003 	ldmia.w	r4, {r0, r1}
  400bfc:	e882 0003 	stmia.w	r2, {r0, r1}
  400c00:	e89d 0003 	ldmia.w	sp, {r0, r1}
  400c04:	e884 0003 	stmia.w	r4, {r0, r1}
  400c08:	e7da      	b.n	400bc0 <ext_irq_register+0x64>
  400c0a:	b147      	cbz	r7, 400c1e <ext_irq_register+0xc2>
  400c0c:	2101      	movs	r1, #1
  400c0e:	4628      	mov	r0, r5
  400c10:	4b05      	ldr	r3, [pc, #20]	; (400c28 <ext_irq_register+0xcc>)
  400c12:	4798      	blx	r3
  400c14:	b003      	add	sp, #12
  400c16:	bdf0      	pop	{r4, r5, r6, r7, pc}
  400c18:	f06f 000c 	mvn.w	r0, #12
  400c1c:	e7fa      	b.n	400c14 <ext_irq_register+0xb8>
  400c1e:	f06f 000c 	mvn.w	r0, #12
  400c22:	e7f7      	b.n	400c14 <ext_irq_register+0xb8>
  400c24:	20400094 	.word	0x20400094
  400c28:	00401581 	.word	0x00401581

00400c2c <i2c_m_sync_write>:
  400c2c:	b510      	push	{r4, lr}
  400c2e:	b084      	sub	sp, #16
  400c30:	8903      	ldrh	r3, [r0, #8]
  400c32:	f8ad 3004 	strh.w	r3, [sp, #4]
  400c36:	4614      	mov	r4, r2
  400c38:	9202      	str	r2, [sp, #8]
  400c3a:	f44f 4300 	mov.w	r3, #32768	; 0x8000
  400c3e:	f8ad 3006 	strh.w	r3, [sp, #6]
  400c42:	9103      	str	r1, [sp, #12]
  400c44:	a901      	add	r1, sp, #4
  400c46:	3814      	subs	r0, #20
  400c48:	4b03      	ldr	r3, [pc, #12]	; (400c58 <i2c_m_sync_write+0x2c>)
  400c4a:	4798      	blx	r3
  400c4c:	b910      	cbnz	r0, 400c54 <i2c_m_sync_write+0x28>
  400c4e:	4620      	mov	r0, r4
  400c50:	b004      	add	sp, #16
  400c52:	bd10      	pop	{r4, pc}
  400c54:	4604      	mov	r4, r0
  400c56:	e7fa      	b.n	400c4e <i2c_m_sync_write+0x22>
  400c58:	00401d55 	.word	0x00401d55

00400c5c <i2c_m_sync_read>:
  400c5c:	b510      	push	{r4, lr}
  400c5e:	b084      	sub	sp, #16
  400c60:	8903      	ldrh	r3, [r0, #8]
  400c62:	f8ad 3004 	strh.w	r3, [sp, #4]
  400c66:	4614      	mov	r4, r2
  400c68:	9202      	str	r2, [sp, #8]
  400c6a:	f248 0301 	movw	r3, #32769	; 0x8001
  400c6e:	f8ad 3006 	strh.w	r3, [sp, #6]
  400c72:	9103      	str	r1, [sp, #12]
  400c74:	a901      	add	r1, sp, #4
  400c76:	3814      	subs	r0, #20
  400c78:	4b03      	ldr	r3, [pc, #12]	; (400c88 <i2c_m_sync_read+0x2c>)
  400c7a:	4798      	blx	r3
  400c7c:	b910      	cbnz	r0, 400c84 <i2c_m_sync_read+0x28>
  400c7e:	4620      	mov	r0, r4
  400c80:	b004      	add	sp, #16
  400c82:	bd10      	pop	{r4, pc}
  400c84:	4604      	mov	r4, r0
  400c86:	e7fa      	b.n	400c7e <i2c_m_sync_read+0x22>
  400c88:	00401d55 	.word	0x00401d55

00400c8c <i2c_m_sync_init>:
  400c8c:	b538      	push	{r3, r4, r5, lr}
  400c8e:	460d      	mov	r5, r1
  400c90:	4604      	mov	r4, r0
  400c92:	225e      	movs	r2, #94	; 0x5e
  400c94:	4908      	ldr	r1, [pc, #32]	; (400cb8 <i2c_m_sync_init+0x2c>)
  400c96:	3000      	adds	r0, #0
  400c98:	bf18      	it	ne
  400c9a:	2001      	movne	r0, #1
  400c9c:	4b07      	ldr	r3, [pc, #28]	; (400cbc <i2c_m_sync_init+0x30>)
  400c9e:	4798      	blx	r3
  400ca0:	4629      	mov	r1, r5
  400ca2:	4620      	mov	r0, r4
  400ca4:	4b06      	ldr	r3, [pc, #24]	; (400cc0 <i2c_m_sync_init+0x34>)
  400ca6:	4798      	blx	r3
  400ca8:	4603      	mov	r3, r0
  400caa:	b918      	cbnz	r0, 400cb4 <i2c_m_sync_init+0x28>
  400cac:	4a05      	ldr	r2, [pc, #20]	; (400cc4 <i2c_m_sync_init+0x38>)
  400cae:	61a2      	str	r2, [r4, #24]
  400cb0:	4a05      	ldr	r2, [pc, #20]	; (400cc8 <i2c_m_sync_init+0x3c>)
  400cb2:	6162      	str	r2, [r4, #20]
  400cb4:	4618      	mov	r0, r3
  400cb6:	bd38      	pop	{r3, r4, r5, pc}
  400cb8:	00403120 	.word	0x00403120
  400cbc:	00401115 	.word	0x00401115
  400cc0:	00401d0d 	.word	0x00401d0d
  400cc4:	00400c5d 	.word	0x00400c5d
  400cc8:	00400c2d 	.word	0x00400c2d

00400ccc <io_write>:
  400ccc:	b570      	push	{r4, r5, r6, lr}
  400cce:	4616      	mov	r6, r2
  400cd0:	4604      	mov	r4, r0
  400cd2:	460d      	mov	r5, r1
  400cd4:	2800      	cmp	r0, #0
  400cd6:	bf18      	it	ne
  400cd8:	2900      	cmpne	r1, #0
  400cda:	bf14      	ite	ne
  400cdc:	2001      	movne	r0, #1
  400cde:	2000      	moveq	r0, #0
  400ce0:	2234      	movs	r2, #52	; 0x34
  400ce2:	4904      	ldr	r1, [pc, #16]	; (400cf4 <io_write+0x28>)
  400ce4:	4b04      	ldr	r3, [pc, #16]	; (400cf8 <io_write+0x2c>)
  400ce6:	4798      	blx	r3
  400ce8:	6823      	ldr	r3, [r4, #0]
  400cea:	4632      	mov	r2, r6
  400cec:	4629      	mov	r1, r5
  400cee:	4620      	mov	r0, r4
  400cf0:	4798      	blx	r3
  400cf2:	bd70      	pop	{r4, r5, r6, pc}
  400cf4:	0040313c 	.word	0x0040313c
  400cf8:	00401115 	.word	0x00401115

00400cfc <io_read>:
  400cfc:	b570      	push	{r4, r5, r6, lr}
  400cfe:	4616      	mov	r6, r2
  400d00:	4604      	mov	r4, r0
  400d02:	460d      	mov	r5, r1
  400d04:	2800      	cmp	r0, #0
  400d06:	bf18      	it	ne
  400d08:	2900      	cmpne	r1, #0
  400d0a:	bf14      	ite	ne
  400d0c:	2001      	movne	r0, #1
  400d0e:	2000      	moveq	r0, #0
  400d10:	223d      	movs	r2, #61	; 0x3d
  400d12:	4904      	ldr	r1, [pc, #16]	; (400d24 <io_read+0x28>)
  400d14:	4b04      	ldr	r3, [pc, #16]	; (400d28 <io_read+0x2c>)
  400d16:	4798      	blx	r3
  400d18:	6863      	ldr	r3, [r4, #4]
  400d1a:	4632      	mov	r2, r6
  400d1c:	4629      	mov	r1, r5
  400d1e:	4620      	mov	r0, r4
  400d20:	4798      	blx	r3
  400d22:	bd70      	pop	{r4, r5, r6, pc}
  400d24:	0040313c 	.word	0x0040313c
  400d28:	00401115 	.word	0x00401115

00400d2c <pwm_period_expired>:
  400d2c:	b508      	push	{r3, lr}
  400d2e:	6943      	ldr	r3, [r0, #20]
  400d30:	b103      	cbz	r3, 400d34 <pwm_period_expired+0x8>
  400d32:	4798      	blx	r3
  400d34:	bd08      	pop	{r3, pc}

00400d36 <pwm_detect_fault>:
  400d36:	b508      	push	{r3, lr}
  400d38:	6983      	ldr	r3, [r0, #24]
  400d3a:	b103      	cbz	r3, 400d3e <pwm_detect_fault+0x8>
  400d3c:	4798      	blx	r3
  400d3e:	bd08      	pop	{r3, pc}

00400d40 <pwm_init>:
  400d40:	b538      	push	{r3, r4, r5, lr}
  400d42:	4604      	mov	r4, r0
  400d44:	460d      	mov	r5, r1
  400d46:	2800      	cmp	r0, #0
  400d48:	bf18      	it	ne
  400d4a:	2900      	cmpne	r1, #0
  400d4c:	bf14      	ite	ne
  400d4e:	2001      	movne	r0, #1
  400d50:	2000      	moveq	r0, #0
  400d52:	2233      	movs	r2, #51	; 0x33
  400d54:	4906      	ldr	r1, [pc, #24]	; (400d70 <pwm_init+0x30>)
  400d56:	4b07      	ldr	r3, [pc, #28]	; (400d74 <pwm_init+0x34>)
  400d58:	4798      	blx	r3
  400d5a:	4629      	mov	r1, r5
  400d5c:	4620      	mov	r0, r4
  400d5e:	4b06      	ldr	r3, [pc, #24]	; (400d78 <pwm_init+0x38>)
  400d60:	4798      	blx	r3
  400d62:	4b06      	ldr	r3, [pc, #24]	; (400d7c <pwm_init+0x3c>)
  400d64:	6023      	str	r3, [r4, #0]
  400d66:	4b06      	ldr	r3, [pc, #24]	; (400d80 <pwm_init+0x40>)
  400d68:	6063      	str	r3, [r4, #4]
  400d6a:	2000      	movs	r0, #0
  400d6c:	bd38      	pop	{r3, r4, r5, pc}
  400d6e:	bf00      	nop
  400d70:	00403150 	.word	0x00403150
  400d74:	00401115 	.word	0x00401115
  400d78:	00401739 	.word	0x00401739
  400d7c:	00400d2d 	.word	0x00400d2d
  400d80:	00400d37 	.word	0x00400d37

00400d84 <pwm_enable>:
  400d84:	b510      	push	{r4, lr}
  400d86:	4604      	mov	r4, r0
  400d88:	224a      	movs	r2, #74	; 0x4a
  400d8a:	4909      	ldr	r1, [pc, #36]	; (400db0 <pwm_enable+0x2c>)
  400d8c:	3000      	adds	r0, #0
  400d8e:	bf18      	it	ne
  400d90:	2001      	movne	r0, #1
  400d92:	4b08      	ldr	r3, [pc, #32]	; (400db4 <pwm_enable+0x30>)
  400d94:	4798      	blx	r3
  400d96:	4620      	mov	r0, r4
  400d98:	4b07      	ldr	r3, [pc, #28]	; (400db8 <pwm_enable+0x34>)
  400d9a:	4798      	blx	r3
  400d9c:	b920      	cbnz	r0, 400da8 <pwm_enable+0x24>
  400d9e:	4620      	mov	r0, r4
  400da0:	4b06      	ldr	r3, [pc, #24]	; (400dbc <pwm_enable+0x38>)
  400da2:	4798      	blx	r3
  400da4:	2000      	movs	r0, #0
  400da6:	bd10      	pop	{r4, pc}
  400da8:	f06f 0010 	mvn.w	r0, #16
  400dac:	bd10      	pop	{r4, pc}
  400dae:	bf00      	nop
  400db0:	00403150 	.word	0x00403150
  400db4:	00401115 	.word	0x00401115
  400db8:	004018b5 	.word	0x004018b5
  400dbc:	00401871 	.word	0x00401871

00400dc0 <spi_m_sync_set_func_ptr>:
  400dc0:	b538      	push	{r3, r4, r5, lr}
  400dc2:	460d      	mov	r5, r1
  400dc4:	4604      	mov	r4, r0
  400dc6:	2239      	movs	r2, #57	; 0x39
  400dc8:	4903      	ldr	r1, [pc, #12]	; (400dd8 <spi_m_sync_set_func_ptr+0x18>)
  400dca:	3000      	adds	r0, #0
  400dcc:	bf18      	it	ne
  400dce:	2001      	movne	r0, #1
  400dd0:	4b02      	ldr	r3, [pc, #8]	; (400ddc <spi_m_sync_set_func_ptr+0x1c>)
  400dd2:	4798      	blx	r3
  400dd4:	6025      	str	r5, [r4, #0]
  400dd6:	bd38      	pop	{r3, r4, r5, pc}
  400dd8:	00403168 	.word	0x00403168
  400ddc:	00401115 	.word	0x00401115

00400de0 <spi_m_sync_init>:
  400de0:	b538      	push	{r3, r4, r5, lr}
  400de2:	4604      	mov	r4, r0
  400de4:	460d      	mov	r5, r1
  400de6:	2800      	cmp	r0, #0
  400de8:	bf18      	it	ne
  400dea:	2900      	cmpne	r1, #0
  400dec:	bf14      	ite	ne
  400dee:	2001      	movne	r0, #1
  400df0:	2000      	moveq	r0, #0
  400df2:	2240      	movs	r2, #64	; 0x40
  400df4:	4909      	ldr	r1, [pc, #36]	; (400e1c <spi_m_sync_init+0x3c>)
  400df6:	4b0a      	ldr	r3, [pc, #40]	; (400e20 <spi_m_sync_init+0x40>)
  400df8:	4798      	blx	r3
  400dfa:	4620      	mov	r0, r4
  400dfc:	f840 5f04 	str.w	r5, [r0, #4]!
  400e00:	4629      	mov	r1, r5
  400e02:	4b08      	ldr	r3, [pc, #32]	; (400e24 <spi_m_sync_init+0x44>)
  400e04:	4798      	blx	r3
  400e06:	2800      	cmp	r0, #0
  400e08:	db07      	blt.n	400e1a <spi_m_sync_init+0x3a>
  400e0a:	f44f 4300 	mov.w	r3, #32768	; 0x8000
  400e0e:	82a3      	strh	r3, [r4, #20]
  400e10:	4b05      	ldr	r3, [pc, #20]	; (400e28 <spi_m_sync_init+0x48>)
  400e12:	6123      	str	r3, [r4, #16]
  400e14:	4b05      	ldr	r3, [pc, #20]	; (400e2c <spi_m_sync_init+0x4c>)
  400e16:	60e3      	str	r3, [r4, #12]
  400e18:	2000      	movs	r0, #0
  400e1a:	bd38      	pop	{r3, r4, r5, pc}
  400e1c:	00403168 	.word	0x00403168
  400e20:	00401115 	.word	0x00401115
  400e24:	00401909 	.word	0x00401909
  400e28:	00400ed5 	.word	0x00400ed5
  400e2c:	00400e99 	.word	0x00400e99

00400e30 <spi_m_sync_enable>:
  400e30:	b510      	push	{r4, lr}
  400e32:	4604      	mov	r4, r0
  400e34:	2257      	movs	r2, #87	; 0x57
  400e36:	4905      	ldr	r1, [pc, #20]	; (400e4c <spi_m_sync_enable+0x1c>)
  400e38:	3000      	adds	r0, #0
  400e3a:	bf18      	it	ne
  400e3c:	2001      	movne	r0, #1
  400e3e:	4b04      	ldr	r3, [pc, #16]	; (400e50 <spi_m_sync_enable+0x20>)
  400e40:	4798      	blx	r3
  400e42:	1d20      	adds	r0, r4, #4
  400e44:	4b03      	ldr	r3, [pc, #12]	; (400e54 <spi_m_sync_enable+0x24>)
  400e46:	4798      	blx	r3
  400e48:	bd10      	pop	{r4, pc}
  400e4a:	bf00      	nop
  400e4c:	00403168 	.word	0x00403168
  400e50:	00401115 	.word	0x00401115
  400e54:	004019b1 	.word	0x004019b1

00400e58 <spi_m_sync_transfer>:
  400e58:	b530      	push	{r4, r5, lr}
  400e5a:	b085      	sub	sp, #20
  400e5c:	4605      	mov	r5, r0
  400e5e:	460c      	mov	r4, r1
  400e60:	2800      	cmp	r0, #0
  400e62:	bf18      	it	ne
  400e64:	2900      	cmpne	r1, #0
  400e66:	bf14      	ite	ne
  400e68:	2001      	movne	r0, #1
  400e6a:	2000      	moveq	r0, #0
  400e6c:	22b3      	movs	r2, #179	; 0xb3
  400e6e:	4907      	ldr	r1, [pc, #28]	; (400e8c <spi_m_sync_transfer+0x34>)
  400e70:	4b07      	ldr	r3, [pc, #28]	; (400e90 <spi_m_sync_transfer+0x38>)
  400e72:	4798      	blx	r3
  400e74:	6823      	ldr	r3, [r4, #0]
  400e76:	9301      	str	r3, [sp, #4]
  400e78:	6863      	ldr	r3, [r4, #4]
  400e7a:	9302      	str	r3, [sp, #8]
  400e7c:	68a3      	ldr	r3, [r4, #8]
  400e7e:	9303      	str	r3, [sp, #12]
  400e80:	a901      	add	r1, sp, #4
  400e82:	1d28      	adds	r0, r5, #4
  400e84:	4b03      	ldr	r3, [pc, #12]	; (400e94 <spi_m_sync_transfer+0x3c>)
  400e86:	4798      	blx	r3
  400e88:	b005      	add	sp, #20
  400e8a:	bd30      	pop	{r4, r5, pc}
  400e8c:	00403168 	.word	0x00403168
  400e90:	00401115 	.word	0x00401115
  400e94:	004019e5 	.word	0x004019e5

00400e98 <_spi_m_sync_io_write>:
  400e98:	b570      	push	{r4, r5, r6, lr}
  400e9a:	b084      	sub	sp, #16
  400e9c:	460e      	mov	r6, r1
  400e9e:	4615      	mov	r5, r2
  400ea0:	4604      	mov	r4, r0
  400ea2:	22a3      	movs	r2, #163	; 0xa3
  400ea4:	4908      	ldr	r1, [pc, #32]	; (400ec8 <_spi_m_sync_io_write+0x30>)
  400ea6:	3000      	adds	r0, #0
  400ea8:	bf18      	it	ne
  400eaa:	2001      	movne	r0, #1
  400eac:	4b07      	ldr	r3, [pc, #28]	; (400ecc <_spi_m_sync_io_write+0x34>)
  400eae:	4798      	blx	r3
  400eb0:	2300      	movs	r3, #0
  400eb2:	9302      	str	r3, [sp, #8]
  400eb4:	9601      	str	r6, [sp, #4]
  400eb6:	9503      	str	r5, [sp, #12]
  400eb8:	a901      	add	r1, sp, #4
  400eba:	f1a4 000c 	sub.w	r0, r4, #12
  400ebe:	4b04      	ldr	r3, [pc, #16]	; (400ed0 <_spi_m_sync_io_write+0x38>)
  400ec0:	4798      	blx	r3
  400ec2:	b004      	add	sp, #16
  400ec4:	bd70      	pop	{r4, r5, r6, pc}
  400ec6:	bf00      	nop
  400ec8:	00403168 	.word	0x00403168
  400ecc:	00401115 	.word	0x00401115
  400ed0:	00400e59 	.word	0x00400e59

00400ed4 <_spi_m_sync_io_read>:
  400ed4:	b570      	push	{r4, r5, r6, lr}
  400ed6:	b084      	sub	sp, #16
  400ed8:	460e      	mov	r6, r1
  400eda:	4615      	mov	r5, r2
  400edc:	4604      	mov	r4, r0
  400ede:	2287      	movs	r2, #135	; 0x87
  400ee0:	4908      	ldr	r1, [pc, #32]	; (400f04 <_spi_m_sync_io_read+0x30>)
  400ee2:	3000      	adds	r0, #0
  400ee4:	bf18      	it	ne
  400ee6:	2001      	movne	r0, #1
  400ee8:	4b07      	ldr	r3, [pc, #28]	; (400f08 <_spi_m_sync_io_read+0x34>)
  400eea:	4798      	blx	r3
  400eec:	9602      	str	r6, [sp, #8]
  400eee:	2300      	movs	r3, #0
  400ef0:	9301      	str	r3, [sp, #4]
  400ef2:	9503      	str	r5, [sp, #12]
  400ef4:	a901      	add	r1, sp, #4
  400ef6:	f1a4 000c 	sub.w	r0, r4, #12
  400efa:	4b04      	ldr	r3, [pc, #16]	; (400f0c <_spi_m_sync_io_read+0x38>)
  400efc:	4798      	blx	r3
  400efe:	b004      	add	sp, #16
  400f00:	bd70      	pop	{r4, r5, r6, pc}
  400f02:	bf00      	nop
  400f04:	00403168 	.word	0x00403168
  400f08:	00401115 	.word	0x00401115
  400f0c:	00400e59 	.word	0x00400e59

00400f10 <spi_m_sync_get_io_descriptor>:
  400f10:	b538      	push	{r3, r4, r5, lr}
  400f12:	4604      	mov	r4, r0
  400f14:	460d      	mov	r5, r1
  400f16:	2800      	cmp	r0, #0
  400f18:	bf18      	it	ne
  400f1a:	2900      	cmpne	r1, #0
  400f1c:	bf14      	ite	ne
  400f1e:	2001      	movne	r0, #1
  400f20:	2000      	moveq	r0, #0
  400f22:	22bd      	movs	r2, #189	; 0xbd
  400f24:	4903      	ldr	r1, [pc, #12]	; (400f34 <spi_m_sync_get_io_descriptor+0x24>)
  400f26:	4b04      	ldr	r3, [pc, #16]	; (400f38 <spi_m_sync_get_io_descriptor+0x28>)
  400f28:	4798      	blx	r3
  400f2a:	340c      	adds	r4, #12
  400f2c:	602c      	str	r4, [r5, #0]
  400f2e:	2000      	movs	r0, #0
  400f30:	bd38      	pop	{r3, r4, r5, pc}
  400f32:	bf00      	nop
  400f34:	00403168 	.word	0x00403168
  400f38:	00401115 	.word	0x00401115

00400f3c <timer_add_timer_task>:
  400f3c:	b5f8      	push	{r3, r4, r5, r6, r7, lr}
  400f3e:	6807      	ldr	r7, [r0, #0]
  400f40:	b117      	cbz	r7, 400f48 <timer_add_timer_task+0xc>
  400f42:	463c      	mov	r4, r7
  400f44:	2600      	movs	r6, #0
  400f46:	e00b      	b.n	400f60 <timer_add_timer_task+0x24>
  400f48:	4b0e      	ldr	r3, [pc, #56]	; (400f84 <timer_add_timer_task+0x48>)
  400f4a:	4798      	blx	r3
  400f4c:	bdf8      	pop	{r3, r4, r5, r6, r7, pc}
  400f4e:	68a5      	ldr	r5, [r4, #8]
  400f50:	442b      	add	r3, r5
  400f52:	1a9b      	subs	r3, r3, r2
  400f54:	3301      	adds	r3, #1
  400f56:	688d      	ldr	r5, [r1, #8]
  400f58:	42ab      	cmp	r3, r5
  400f5a:	d209      	bcs.n	400f70 <timer_add_timer_task+0x34>
  400f5c:	4626      	mov	r6, r4
  400f5e:	6824      	ldr	r4, [r4, #0]
  400f60:	b134      	cbz	r4, 400f70 <timer_add_timer_task+0x34>
  400f62:	6863      	ldr	r3, [r4, #4]
  400f64:	4293      	cmp	r3, r2
  400f66:	d8f2      	bhi.n	400f4e <timer_add_timer_task+0x12>
  400f68:	68a5      	ldr	r5, [r4, #8]
  400f6a:	1a9b      	subs	r3, r3, r2
  400f6c:	442b      	add	r3, r5
  400f6e:	e7f2      	b.n	400f56 <timer_add_timer_task+0x1a>
  400f70:	42bc      	cmp	r4, r7
  400f72:	d003      	beq.n	400f7c <timer_add_timer_task+0x40>
  400f74:	4630      	mov	r0, r6
  400f76:	4b04      	ldr	r3, [pc, #16]	; (400f88 <timer_add_timer_task+0x4c>)
  400f78:	4798      	blx	r3
  400f7a:	bdf8      	pop	{r3, r4, r5, r6, r7, pc}
  400f7c:	4b01      	ldr	r3, [pc, #4]	; (400f84 <timer_add_timer_task+0x48>)
  400f7e:	4798      	blx	r3
  400f80:	bdf8      	pop	{r3, r4, r5, r6, r7, pc}
  400f82:	bf00      	nop
  400f84:	00401131 	.word	0x00401131
  400f88:	0040115d 	.word	0x0040115d

00400f8c <timer_process_counted>:
  400f8c:	b5f8      	push	{r3, r4, r5, r6, r7, lr}
  400f8e:	6944      	ldr	r4, [r0, #20]
  400f90:	6906      	ldr	r6, [r0, #16]
  400f92:	3601      	adds	r6, #1
  400f94:	6106      	str	r6, [r0, #16]
  400f96:	7e03      	ldrb	r3, [r0, #24]
  400f98:	f013 0f01 	tst.w	r3, #1
  400f9c:	d105      	bne.n	400faa <timer_process_counted+0x1e>
  400f9e:	7e03      	ldrb	r3, [r0, #24]
  400fa0:	f013 0f02 	tst.w	r3, #2
  400fa4:	d101      	bne.n	400faa <timer_process_counted+0x1e>
  400fa6:	4605      	mov	r5, r0
  400fa8:	e009      	b.n	400fbe <timer_process_counted+0x32>
  400faa:	7e03      	ldrb	r3, [r0, #24]
  400fac:	f043 0302 	orr.w	r3, r3, #2
  400fb0:	7603      	strb	r3, [r0, #24]
  400fb2:	bdf8      	pop	{r3, r4, r5, r6, r7, pc}
  400fb4:	696f      	ldr	r7, [r5, #20]
  400fb6:	68e3      	ldr	r3, [r4, #12]
  400fb8:	4620      	mov	r0, r4
  400fba:	4798      	blx	r3
  400fbc:	463c      	mov	r4, r7
  400fbe:	b19c      	cbz	r4, 400fe8 <timer_process_counted+0x5c>
  400fc0:	6863      	ldr	r3, [r4, #4]
  400fc2:	1af3      	subs	r3, r6, r3
  400fc4:	68a2      	ldr	r2, [r4, #8]
  400fc6:	4293      	cmp	r3, r2
  400fc8:	d30e      	bcc.n	400fe8 <timer_process_counted+0x5c>
  400fca:	f105 0714 	add.w	r7, r5, #20
  400fce:	4638      	mov	r0, r7
  400fd0:	4b06      	ldr	r3, [pc, #24]	; (400fec <timer_process_counted+0x60>)
  400fd2:	4798      	blx	r3
  400fd4:	7c23      	ldrb	r3, [r4, #16]
  400fd6:	2b01      	cmp	r3, #1
  400fd8:	d1ec      	bne.n	400fb4 <timer_process_counted+0x28>
  400fda:	6066      	str	r6, [r4, #4]
  400fdc:	4632      	mov	r2, r6
  400fde:	4621      	mov	r1, r4
  400fe0:	4638      	mov	r0, r7
  400fe2:	4b03      	ldr	r3, [pc, #12]	; (400ff0 <timer_process_counted+0x64>)
  400fe4:	4798      	blx	r3
  400fe6:	e7e5      	b.n	400fb4 <timer_process_counted+0x28>
  400fe8:	bdf8      	pop	{r3, r4, r5, r6, r7, pc}
  400fea:	bf00      	nop
  400fec:	00401165 	.word	0x00401165
  400ff0:	00400f3d 	.word	0x00400f3d

00400ff4 <timer_init>:
  400ff4:	b538      	push	{r3, r4, r5, lr}
  400ff6:	4604      	mov	r4, r0
  400ff8:	460d      	mov	r5, r1
  400ffa:	2800      	cmp	r0, #0
  400ffc:	bf18      	it	ne
  400ffe:	2900      	cmpne	r1, #0
  401000:	bf14      	ite	ne
  401002:	2001      	movne	r0, #1
  401004:	2000      	moveq	r0, #0
  401006:	223b      	movs	r2, #59	; 0x3b
  401008:	4905      	ldr	r1, [pc, #20]	; (401020 <timer_init+0x2c>)
  40100a:	4b06      	ldr	r3, [pc, #24]	; (401024 <timer_init+0x30>)
  40100c:	4798      	blx	r3
  40100e:	4629      	mov	r1, r5
  401010:	4620      	mov	r0, r4
  401012:	4b05      	ldr	r3, [pc, #20]	; (401028 <timer_init+0x34>)
  401014:	4798      	blx	r3
  401016:	2000      	movs	r0, #0
  401018:	6120      	str	r0, [r4, #16]
  40101a:	4b04      	ldr	r3, [pc, #16]	; (40102c <timer_init+0x38>)
  40101c:	6023      	str	r3, [r4, #0]
  40101e:	bd38      	pop	{r3, r4, r5, pc}
  401020:	00403184 	.word	0x00403184
  401024:	00401115 	.word	0x00401115
  401028:	00401bc1 	.word	0x00401bc1
  40102c:	00400f8d 	.word	0x00400f8d

00401030 <timer_start>:
  401030:	b510      	push	{r4, lr}
  401032:	4604      	mov	r4, r0
  401034:	2253      	movs	r2, #83	; 0x53
  401036:	4909      	ldr	r1, [pc, #36]	; (40105c <timer_start+0x2c>)
  401038:	3000      	adds	r0, #0
  40103a:	bf18      	it	ne
  40103c:	2001      	movne	r0, #1
  40103e:	4b08      	ldr	r3, [pc, #32]	; (401060 <timer_start+0x30>)
  401040:	4798      	blx	r3
  401042:	4620      	mov	r0, r4
  401044:	4b07      	ldr	r3, [pc, #28]	; (401064 <timer_start+0x34>)
  401046:	4798      	blx	r3
  401048:	b920      	cbnz	r0, 401054 <timer_start+0x24>
  40104a:	4620      	mov	r0, r4
  40104c:	4b06      	ldr	r3, [pc, #24]	; (401068 <timer_start+0x38>)
  40104e:	4798      	blx	r3
  401050:	2000      	movs	r0, #0
  401052:	bd10      	pop	{r4, pc}
  401054:	f06f 0010 	mvn.w	r0, #16
  401058:	bd10      	pop	{r4, pc}
  40105a:	bf00      	nop
  40105c:	00403184 	.word	0x00403184
  401060:	00401115 	.word	0x00401115
  401064:	00401c85 	.word	0x00401c85
  401068:	00401c7d 	.word	0x00401c7d

0040106c <timer_add_task>:
  40106c:	b570      	push	{r4, r5, r6, lr}
  40106e:	b082      	sub	sp, #8
  401070:	4604      	mov	r4, r0
  401072:	460d      	mov	r5, r1
  401074:	2800      	cmp	r0, #0
  401076:	bf18      	it	ne
  401078:	2900      	cmpne	r1, #0
  40107a:	bf14      	ite	ne
  40107c:	2001      	movne	r0, #1
  40107e:	2000      	moveq	r0, #0
  401080:	227a      	movs	r2, #122	; 0x7a
  401082:	491d      	ldr	r1, [pc, #116]	; (4010f8 <timer_add_task+0x8c>)
  401084:	4b1d      	ldr	r3, [pc, #116]	; (4010fc <timer_add_task+0x90>)
  401086:	4798      	blx	r3
  401088:	7e23      	ldrb	r3, [r4, #24]
  40108a:	f043 0301 	orr.w	r3, r3, #1
  40108e:	7623      	strb	r3, [r4, #24]
  401090:	f104 0614 	add.w	r6, r4, #20
  401094:	4629      	mov	r1, r5
  401096:	4630      	mov	r0, r6
  401098:	4b19      	ldr	r3, [pc, #100]	; (401100 <timer_add_task+0x94>)
  40109a:	4798      	blx	r3
  40109c:	b988      	cbnz	r0, 4010c2 <timer_add_task+0x56>
  40109e:	6923      	ldr	r3, [r4, #16]
  4010a0:	606b      	str	r3, [r5, #4]
  4010a2:	6922      	ldr	r2, [r4, #16]
  4010a4:	4629      	mov	r1, r5
  4010a6:	4630      	mov	r0, r6
  4010a8:	4b16      	ldr	r3, [pc, #88]	; (401104 <timer_add_task+0x98>)
  4010aa:	4798      	blx	r3
  4010ac:	7e23      	ldrb	r3, [r4, #24]
  4010ae:	f003 03fe 	and.w	r3, r3, #254	; 0xfe
  4010b2:	7623      	strb	r3, [r4, #24]
  4010b4:	7e23      	ldrb	r3, [r4, #24]
  4010b6:	f013 0f02 	tst.w	r3, #2
  4010ba:	d10e      	bne.n	4010da <timer_add_task+0x6e>
  4010bc:	2000      	movs	r0, #0
  4010be:	b002      	add	sp, #8
  4010c0:	bd70      	pop	{r4, r5, r6, pc}
  4010c2:	7e23      	ldrb	r3, [r4, #24]
  4010c4:	f003 03fe 	and.w	r3, r3, #254	; 0xfe
  4010c8:	7623      	strb	r3, [r4, #24]
  4010ca:	227f      	movs	r2, #127	; 0x7f
  4010cc:	490a      	ldr	r1, [pc, #40]	; (4010f8 <timer_add_task+0x8c>)
  4010ce:	2000      	movs	r0, #0
  4010d0:	4b0a      	ldr	r3, [pc, #40]	; (4010fc <timer_add_task+0x90>)
  4010d2:	4798      	blx	r3
  4010d4:	f06f 0011 	mvn.w	r0, #17
  4010d8:	e7f1      	b.n	4010be <timer_add_task+0x52>
  4010da:	a801      	add	r0, sp, #4
  4010dc:	4b0a      	ldr	r3, [pc, #40]	; (401108 <timer_add_task+0x9c>)
  4010de:	4798      	blx	r3
  4010e0:	7e23      	ldrb	r3, [r4, #24]
  4010e2:	f003 03fd 	and.w	r3, r3, #253	; 0xfd
  4010e6:	7623      	strb	r3, [r4, #24]
  4010e8:	4620      	mov	r0, r4
  4010ea:	4b08      	ldr	r3, [pc, #32]	; (40110c <timer_add_task+0xa0>)
  4010ec:	4798      	blx	r3
  4010ee:	a801      	add	r0, sp, #4
  4010f0:	4b07      	ldr	r3, [pc, #28]	; (401110 <timer_add_task+0xa4>)
  4010f2:	4798      	blx	r3
  4010f4:	2000      	movs	r0, #0
  4010f6:	e7e2      	b.n	4010be <timer_add_task+0x52>
  4010f8:	00403184 	.word	0x00403184
  4010fc:	00401115 	.word	0x00401115
  401100:	0040111b 	.word	0x0040111b
  401104:	00400f3d 	.word	0x00400f3d
  401108:	00400a75 	.word	0x00400a75
  40110c:	00401c91 	.word	0x00401c91
  401110:	00400a83 	.word	0x00400a83

00401114 <assert>:
  401114:	b900      	cbnz	r0, 401118 <assert+0x4>
  401116:	be00      	bkpt	0x0000
  401118:	4770      	bx	lr

0040111a <is_list_element>:
  40111a:	6803      	ldr	r3, [r0, #0]
  40111c:	b11b      	cbz	r3, 401126 <is_list_element+0xc>
  40111e:	428b      	cmp	r3, r1
  401120:	d003      	beq.n	40112a <is_list_element+0x10>
  401122:	681b      	ldr	r3, [r3, #0]
  401124:	e7fa      	b.n	40111c <is_list_element+0x2>
  401126:	2000      	movs	r0, #0
  401128:	4770      	bx	lr
  40112a:	2001      	movs	r0, #1
  40112c:	4770      	bx	lr
	...

00401130 <list_insert_as_head>:
  401130:	b538      	push	{r3, r4, r5, lr}
  401132:	4604      	mov	r4, r0
  401134:	460d      	mov	r5, r1
  401136:	4b06      	ldr	r3, [pc, #24]	; (401150 <list_insert_as_head+0x20>)
  401138:	4798      	blx	r3
  40113a:	f080 0001 	eor.w	r0, r0, #1
  40113e:	2239      	movs	r2, #57	; 0x39
  401140:	4904      	ldr	r1, [pc, #16]	; (401154 <list_insert_as_head+0x24>)
  401142:	b2c0      	uxtb	r0, r0
  401144:	4b04      	ldr	r3, [pc, #16]	; (401158 <list_insert_as_head+0x28>)
  401146:	4798      	blx	r3
  401148:	6823      	ldr	r3, [r4, #0]
  40114a:	602b      	str	r3, [r5, #0]
  40114c:	6025      	str	r5, [r4, #0]
  40114e:	bd38      	pop	{r3, r4, r5, pc}
  401150:	0040111b 	.word	0x0040111b
  401154:	0040319c 	.word	0x0040319c
  401158:	00401115 	.word	0x00401115

0040115c <list_insert_after>:
  40115c:	6803      	ldr	r3, [r0, #0]
  40115e:	600b      	str	r3, [r1, #0]
  401160:	6001      	str	r1, [r0, #0]
  401162:	4770      	bx	lr

00401164 <list_remove_head>:
  401164:	6803      	ldr	r3, [r0, #0]
  401166:	b11b      	cbz	r3, 401170 <list_remove_head+0xc>
  401168:	681a      	ldr	r2, [r3, #0]
  40116a:	6002      	str	r2, [r0, #0]
  40116c:	4618      	mov	r0, r3
  40116e:	4770      	bx	lr
  401170:	2000      	movs	r0, #0
  401172:	4770      	bx	lr

00401174 <_afec_init>:
  401174:	2364      	movs	r3, #100	; 0x64
  401176:	4a1d      	ldr	r2, [pc, #116]	; (4011ec <_afec_init+0x78>)
  401178:	fb03 2301 	mla	r3, r3, r1, r2
  40117c:	685a      	ldr	r2, [r3, #4]
  40117e:	6042      	str	r2, [r0, #4]
  401180:	689a      	ldr	r2, [r3, #8]
  401182:	6082      	str	r2, [r0, #8]
  401184:	68da      	ldr	r2, [r3, #12]
  401186:	60c2      	str	r2, [r0, #12]
  401188:	691a      	ldr	r2, [r3, #16]
  40118a:	6102      	str	r2, [r0, #16]
  40118c:	695a      	ldr	r2, [r3, #20]
  40118e:	6502      	str	r2, [r0, #80]	; 0x50
  401190:	699a      	ldr	r2, [r3, #24]
  401192:	6542      	str	r2, [r0, #84]	; 0x54
  401194:	69da      	ldr	r2, [r3, #28]
  401196:	6602      	str	r2, [r0, #96]	; 0x60
  401198:	6a1a      	ldr	r2, [r3, #32]
  40119a:	f8c0 2094 	str.w	r2, [r0, #148]	; 0x94
  40119e:	6a5a      	ldr	r2, [r3, #36]	; 0x24
  4011a0:	f8c0 20a0 	str.w	r2, [r0, #160]	; 0xa0
  4011a4:	6a9a      	ldr	r2, [r3, #40]	; 0x28
  4011a6:	f8c0 20d0 	str.w	r2, [r0, #208]	; 0xd0
  4011aa:	6ada      	ldr	r2, [r3, #44]	; 0x2c
  4011ac:	f8c0 20d4 	str.w	r2, [r0, #212]	; 0xd4
  4011b0:	6b1b      	ldr	r3, [r3, #48]	; 0x30
  4011b2:	f8c0 30d8 	str.w	r3, [r0, #216]	; 0xd8
  4011b6:	2200      	movs	r2, #0
  4011b8:	2a0b      	cmp	r2, #11
  4011ba:	d814      	bhi.n	4011e6 <_afec_init+0x72>
  4011bc:	b410      	push	{r4}
  4011be:	6642      	str	r2, [r0, #100]	; 0x64
  4011c0:	eb01 0381 	add.w	r3, r1, r1, lsl #2
  4011c4:	eb03 0383 	add.w	r3, r3, r3, lsl #2
  4011c8:	4413      	add	r3, r2
  4011ca:	330c      	adds	r3, #12
  4011cc:	4c07      	ldr	r4, [pc, #28]	; (4011ec <_afec_init+0x78>)
  4011ce:	eb04 0383 	add.w	r3, r4, r3, lsl #2
  4011d2:	685b      	ldr	r3, [r3, #4]
  4011d4:	66c3      	str	r3, [r0, #108]	; 0x6c
  4011d6:	3201      	adds	r2, #1
  4011d8:	b2d2      	uxtb	r2, r2
  4011da:	2a0b      	cmp	r2, #11
  4011dc:	d9ef      	bls.n	4011be <_afec_init+0x4a>
  4011de:	2000      	movs	r0, #0
  4011e0:	f85d 4b04 	ldr.w	r4, [sp], #4
  4011e4:	4770      	bx	lr
  4011e6:	2000      	movs	r0, #0
  4011e8:	4770      	bx	lr
  4011ea:	bf00      	nop
  4011ec:	004031bc 	.word	0x004031bc

004011f0 <_afec_get_hardware_index>:
  4011f0:	b508      	push	{r3, lr}
  4011f2:	4b09      	ldr	r3, [pc, #36]	; (401218 <_afec_get_hardware_index+0x28>)
  4011f4:	4298      	cmp	r0, r3
  4011f6:	d00a      	beq.n	40120e <_afec_get_hardware_index+0x1e>
  4011f8:	f503 3320 	add.w	r3, r3, #163840	; 0x28000
  4011fc:	4298      	cmp	r0, r3
  4011fe:	d008      	beq.n	401212 <_afec_get_hardware_index+0x22>
  401200:	22a3      	movs	r2, #163	; 0xa3
  401202:	4906      	ldr	r1, [pc, #24]	; (40121c <_afec_get_hardware_index+0x2c>)
  401204:	2000      	movs	r0, #0
  401206:	4b06      	ldr	r3, [pc, #24]	; (401220 <_afec_get_hardware_index+0x30>)
  401208:	4798      	blx	r3
  40120a:	2000      	movs	r0, #0
  40120c:	bd08      	pop	{r3, pc}
  40120e:	2000      	movs	r0, #0
  401210:	bd08      	pop	{r3, pc}
  401212:	2001      	movs	r0, #1
  401214:	bd08      	pop	{r3, pc}
  401216:	bf00      	nop
  401218:	4003c000 	.word	0x4003c000
  40121c:	00403220 	.word	0x00403220
  401220:	00401115 	.word	0x00401115

00401224 <_afec_get_regs>:
  401224:	b508      	push	{r3, lr}
  401226:	4b08      	ldr	r3, [pc, #32]	; (401248 <_afec_get_regs+0x24>)
  401228:	4798      	blx	r3
  40122a:	2300      	movs	r3, #0
  40122c:	b113      	cbz	r3, 401234 <_afec_get_regs+0x10>
  40122e:	2300      	movs	r3, #0
  401230:	4618      	mov	r0, r3
  401232:	bd08      	pop	{r3, pc}
  401234:	2264      	movs	r2, #100	; 0x64
  401236:	fb02 f203 	mul.w	r2, r2, r3
  40123a:	4904      	ldr	r1, [pc, #16]	; (40124c <_afec_get_regs+0x28>)
  40123c:	5c8a      	ldrb	r2, [r1, r2]
  40123e:	4290      	cmp	r0, r2
  401240:	d0f6      	beq.n	401230 <_afec_get_regs+0xc>
  401242:	3301      	adds	r3, #1
  401244:	b2db      	uxtb	r3, r3
  401246:	e7f1      	b.n	40122c <_afec_get_regs+0x8>
  401248:	004011f1 	.word	0x004011f1
  40124c:	004031bc 	.word	0x004031bc

00401250 <_adc_sync_init>:
  401250:	b538      	push	{r3, r4, r5, lr}
  401252:	460c      	mov	r4, r1
  401254:	4605      	mov	r5, r0
  401256:	f44f 728d 	mov.w	r2, #282	; 0x11a
  40125a:	4907      	ldr	r1, [pc, #28]	; (401278 <_adc_sync_init+0x28>)
  40125c:	3000      	adds	r0, #0
  40125e:	bf18      	it	ne
  401260:	2001      	movne	r0, #1
  401262:	4b06      	ldr	r3, [pc, #24]	; (40127c <_adc_sync_init+0x2c>)
  401264:	4798      	blx	r3
  401266:	602c      	str	r4, [r5, #0]
  401268:	4620      	mov	r0, r4
  40126a:	4b05      	ldr	r3, [pc, #20]	; (401280 <_adc_sync_init+0x30>)
  40126c:	4798      	blx	r3
  40126e:	4601      	mov	r1, r0
  401270:	4620      	mov	r0, r4
  401272:	4b04      	ldr	r3, [pc, #16]	; (401284 <_adc_sync_init+0x34>)
  401274:	4798      	blx	r3
  401276:	bd38      	pop	{r3, r4, r5, pc}
  401278:	00403220 	.word	0x00403220
  40127c:	00401115 	.word	0x00401115
  401280:	00401225 	.word	0x00401225
  401284:	00401175 	.word	0x00401175

00401288 <_adc_sync_enable_channel>:
  401288:	6802      	ldr	r2, [r0, #0]
  40128a:	2301      	movs	r3, #1
  40128c:	fa03 f101 	lsl.w	r1, r3, r1
  401290:	6151      	str	r1, [r2, #20]
  401292:	4770      	bx	lr

00401294 <_irq_set>:
  401294:	b243      	sxtb	r3, r0
  \param [in]      IRQn  Device specific interrupt number.
  \note    IRQn must not be negative.
 */
__STATIC_INLINE void __NVIC_SetPendingIRQ(IRQn_Type IRQn)
{
  if ((int32_t)(IRQn) >= 0)
  401296:	2b00      	cmp	r3, #0
  401298:	db09      	blt.n	4012ae <_irq_set+0x1a>
  {
    NVIC->ISPR[(((uint32_t)IRQn) >> 5UL)] = (uint32_t)(1UL << (((uint32_t)IRQn) & 0x1FUL));
  40129a:	095b      	lsrs	r3, r3, #5
  40129c:	f000 001f 	and.w	r0, r0, #31
  4012a0:	2201      	movs	r2, #1
  4012a2:	fa02 f000 	lsl.w	r0, r2, r0
  4012a6:	3340      	adds	r3, #64	; 0x40
  4012a8:	4a01      	ldr	r2, [pc, #4]	; (4012b0 <_irq_set+0x1c>)
  4012aa:	f842 0023 	str.w	r0, [r2, r3, lsl #2]
  4012ae:	4770      	bx	lr
  4012b0:	e000e100 	.word	0xe000e100

004012b4 <_get_cycles_for_us>:
  4012b4:	f44f 7396 	mov.w	r3, #300	; 0x12c
  4012b8:	fb03 f000 	mul.w	r0, r3, r0
  4012bc:	4770      	bx	lr

004012be <_get_cycles_for_ms>:
  4012be:	f44f 7396 	mov.w	r3, #300	; 0x12c
  4012c2:	fb03 f000 	mul.w	r0, r3, r0
  4012c6:	f44f 737a 	mov.w	r3, #1000	; 0x3e8
  4012ca:	fb03 f000 	mul.w	r0, r3, r0
  4012ce:	4770      	bx	lr

004012d0 <_init_chip>:
  4012d0:	b500      	push	{lr}
  4012d2:	b083      	sub	sp, #12
  4012d4:	a801      	add	r0, sp, #4
  4012d6:	4b0e      	ldr	r3, [pc, #56]	; (401310 <_init_chip+0x40>)
  4012d8:	4798      	blx	r3
  4012da:	4a0e      	ldr	r2, [pc, #56]	; (401314 <_init_chip+0x44>)
  4012dc:	f8d2 3088 	ldr.w	r3, [r2, #136]	; 0x88
  4012e0:	f443 0370 	orr.w	r3, r3, #15728640	; 0xf00000
  4012e4:	f8c2 3088 	str.w	r3, [r2, #136]	; 0x88
  __ASM volatile ("dsb 0xF":::"memory");
  4012e8:	f3bf 8f4f 	dsb	sy
  __ASM volatile ("isb 0xF":::"memory");
  4012ec:	f3bf 8f6f 	isb	sy
  4012f0:	a801      	add	r0, sp, #4
  4012f2:	4b09      	ldr	r3, [pc, #36]	; (401318 <_init_chip+0x48>)
  4012f4:	4798      	blx	r3
  4012f6:	4a09      	ldr	r2, [pc, #36]	; (40131c <_init_chip+0x4c>)
  4012f8:	6813      	ldr	r3, [r2, #0]
  4012fa:	f423 6370 	bic.w	r3, r3, #3840	; 0xf00
  4012fe:	f443 63c0 	orr.w	r3, r3, #1536	; 0x600
  401302:	6013      	str	r3, [r2, #0]
  401304:	4b06      	ldr	r3, [pc, #24]	; (401320 <_init_chip+0x50>)
  401306:	4798      	blx	r3
  401308:	b003      	add	sp, #12
  40130a:	f85d fb04 	ldr.w	pc, [sp], #4
  40130e:	bf00      	nop
  401310:	00400a75 	.word	0x00400a75
  401314:	e000ed00 	.word	0xe000ed00
  401318:	00400a83 	.word	0x00400a83
  40131c:	400e0c00 	.word	0x400e0c00
  401320:	00401695 	.word	0x00401695

00401324 <_ffs>:
  401324:	b430      	push	{r4, r5}
  401326:	2500      	movs	r5, #0
  401328:	428d      	cmp	r5, r1
  40132a:	d210      	bcs.n	40134e <_ffs+0x2a>
  40132c:	2201      	movs	r2, #1
  40132e:	2300      	movs	r3, #0
  401330:	2b1f      	cmp	r3, #31
  401332:	d80a      	bhi.n	40134a <_ffs+0x26>
  401334:	f850 4025 	ldr.w	r4, [r0, r5, lsl #2]
  401338:	4222      	tst	r2, r4
  40133a:	d102      	bne.n	401342 <_ffs+0x1e>
  40133c:	0052      	lsls	r2, r2, #1
  40133e:	3301      	adds	r3, #1
  401340:	e7f6      	b.n	401330 <_ffs+0xc>
  401342:	eb03 1045 	add.w	r0, r3, r5, lsl #5
  401346:	bc30      	pop	{r4, r5}
  401348:	4770      	bx	lr
  40134a:	3501      	adds	r5, #1
  40134c:	e7ec      	b.n	401328 <_ffs+0x4>
  40134e:	f04f 30ff 	mov.w	r0, #4294967295
  401352:	e7f8      	b.n	401346 <_ffs+0x22>

00401354 <_ext_irq_handler>:
  401354:	b510      	push	{r4, lr}
  401356:	b086      	sub	sp, #24
  401358:	2300      	movs	r3, #0
  40135a:	9301      	str	r3, [sp, #4]
  40135c:	9302      	str	r3, [sp, #8]
  40135e:	9303      	str	r3, [sp, #12]
  401360:	9304      	str	r3, [sp, #16]
  401362:	9305      	str	r3, [sp, #20]
  401364:	4b21      	ldr	r3, [pc, #132]	; (4013ec <_ext_irq_handler+0x98>)
  401366:	6818      	ldr	r0, [r3, #0]
  401368:	22f8      	movs	r2, #248	; 0xf8
  40136a:	4921      	ldr	r1, [pc, #132]	; (4013f0 <_ext_irq_handler+0x9c>)
  40136c:	3000      	adds	r0, #0
  40136e:	bf18      	it	ne
  401370:	2001      	movne	r0, #1
  401372:	4b20      	ldr	r3, [pc, #128]	; (4013f4 <_ext_irq_handler+0xa0>)
  401374:	4798      	blx	r3
  401376:	4b20      	ldr	r3, [pc, #128]	; (4013f8 <_ext_irq_handler+0xa4>)
  401378:	6cda      	ldr	r2, [r3, #76]	; 0x4c
  40137a:	6c9b      	ldr	r3, [r3, #72]	; 0x48
  40137c:	4013      	ands	r3, r2
  40137e:	9301      	str	r3, [sp, #4]
  401380:	491e      	ldr	r1, [pc, #120]	; (4013fc <_ext_irq_handler+0xa8>)
  401382:	6cca      	ldr	r2, [r1, #76]	; 0x4c
  401384:	6c89      	ldr	r1, [r1, #72]	; 0x48
  401386:	400a      	ands	r2, r1
  401388:	9202      	str	r2, [sp, #8]
  40138a:	4313      	orrs	r3, r2
  40138c:	e025      	b.n	4013da <_ext_irq_handler+0x86>
  40138e:	4b17      	ldr	r3, [pc, #92]	; (4013ec <_ext_irq_handler+0x98>)
  401390:	681b      	ldr	r3, [r3, #0]
  401392:	4620      	mov	r0, r4
  401394:	4798      	blx	r3
  401396:	1163      	asrs	r3, r4, #5
  401398:	f004 041f 	and.w	r4, r4, #31
  40139c:	2201      	movs	r2, #1
  40139e:	fa02 f404 	lsl.w	r4, r2, r4
  4013a2:	aa06      	add	r2, sp, #24
  4013a4:	eb02 0383 	add.w	r3, r2, r3, lsl #2
  4013a8:	f853 2c14 	ldr.w	r2, [r3, #-20]
  4013ac:	ea22 0204 	bic.w	r2, r2, r4
  4013b0:	f843 2c14 	str.w	r2, [r3, #-20]
  4013b4:	2105      	movs	r1, #5
  4013b6:	a801      	add	r0, sp, #4
  4013b8:	4b11      	ldr	r3, [pc, #68]	; (401400 <_ext_irq_handler+0xac>)
  4013ba:	4798      	blx	r3
  4013bc:	4604      	mov	r4, r0
  4013be:	f1b4 3fff 	cmp.w	r4, #4294967295
  4013c2:	d1e4      	bne.n	40138e <_ext_irq_handler+0x3a>
  4013c4:	4a0c      	ldr	r2, [pc, #48]	; (4013f8 <_ext_irq_handler+0xa4>)
  4013c6:	6cd1      	ldr	r1, [r2, #76]	; 0x4c
  4013c8:	6c93      	ldr	r3, [r2, #72]	; 0x48
  4013ca:	400b      	ands	r3, r1
  4013cc:	9301      	str	r3, [sp, #4]
  4013ce:	490b      	ldr	r1, [pc, #44]	; (4013fc <_ext_irq_handler+0xa8>)
  4013d0:	6cc8      	ldr	r0, [r1, #76]	; 0x4c
  4013d2:	6c8a      	ldr	r2, [r1, #72]	; 0x48
  4013d4:	4002      	ands	r2, r0
  4013d6:	9202      	str	r2, [sp, #8]
  4013d8:	4313      	orrs	r3, r2
  4013da:	b12b      	cbz	r3, 4013e8 <_ext_irq_handler+0x94>
  4013dc:	2105      	movs	r1, #5
  4013de:	a801      	add	r0, sp, #4
  4013e0:	4b07      	ldr	r3, [pc, #28]	; (401400 <_ext_irq_handler+0xac>)
  4013e2:	4798      	blx	r3
  4013e4:	4604      	mov	r4, r0
  4013e6:	e7ea      	b.n	4013be <_ext_irq_handler+0x6a>
  4013e8:	b006      	add	sp, #24
  4013ea:	bd10      	pop	{r4, pc}
  4013ec:	204000c4 	.word	0x204000c4
  4013f0:	00403274 	.word	0x00403274
  4013f4:	00401115 	.word	0x00401115
  4013f8:	400e0e00 	.word	0x400e0e00
  4013fc:	400e1000 	.word	0x400e1000
  401400:	00401325 	.word	0x00401325

00401404 <_pio_get_hardware_index>:
  401404:	b510      	push	{r4, lr}
  401406:	4604      	mov	r4, r0
  401408:	22d2      	movs	r2, #210	; 0xd2
  40140a:	4905      	ldr	r1, [pc, #20]	; (401420 <_pio_get_hardware_index+0x1c>)
  40140c:	3000      	adds	r0, #0
  40140e:	bf18      	it	ne
  401410:	2001      	movne	r0, #1
  401412:	4b04      	ldr	r3, [pc, #16]	; (401424 <_pio_get_hardware_index+0x20>)
  401414:	4798      	blx	r3
  401416:	4804      	ldr	r0, [pc, #16]	; (401428 <_pio_get_hardware_index+0x24>)
  401418:	4420      	add	r0, r4
  40141a:	f3c0 2047 	ubfx	r0, r0, #9, #8
  40141e:	bd10      	pop	{r4, pc}
  401420:	00403274 	.word	0x00403274
  401424:	00401115 	.word	0x00401115
  401428:	bff1f200 	.word	0xbff1f200

0040142c <_pio_get_index>:
  40142c:	b510      	push	{r4, lr}
  40142e:	4604      	mov	r4, r0
  401430:	22e0      	movs	r2, #224	; 0xe0
  401432:	490d      	ldr	r1, [pc, #52]	; (401468 <_pio_get_index+0x3c>)
  401434:	3000      	adds	r0, #0
  401436:	bf18      	it	ne
  401438:	2001      	movne	r0, #1
  40143a:	4b0c      	ldr	r3, [pc, #48]	; (40146c <_pio_get_index+0x40>)
  40143c:	4798      	blx	r3
  40143e:	4620      	mov	r0, r4
  401440:	4b0b      	ldr	r3, [pc, #44]	; (401470 <_pio_get_index+0x44>)
  401442:	4798      	blx	r3
  401444:	2300      	movs	r3, #0
  401446:	2b01      	cmp	r3, #1
  401448:	d80b      	bhi.n	401462 <_pio_get_index+0x36>
  40144a:	ebc3 01c3 	rsb	r1, r3, r3, lsl #3
  40144e:	008a      	lsls	r2, r1, #2
  401450:	4908      	ldr	r1, [pc, #32]	; (401474 <_pio_get_index+0x48>)
  401452:	5c8a      	ldrb	r2, [r1, r2]
  401454:	4290      	cmp	r0, r2
  401456:	d002      	beq.n	40145e <_pio_get_index+0x32>
  401458:	3301      	adds	r3, #1
  40145a:	b2db      	uxtb	r3, r3
  40145c:	e7f3      	b.n	401446 <_pio_get_index+0x1a>
  40145e:	b258      	sxtb	r0, r3
  401460:	bd10      	pop	{r4, pc}
  401462:	f04f 30ff 	mov.w	r0, #4294967295
  401466:	bd10      	pop	{r4, pc}
  401468:	00403274 	.word	0x00403274
  40146c:	00401115 	.word	0x00401115
  401470:	00401405 	.word	0x00401405
  401474:	00403238 	.word	0x00403238

00401478 <_pio_init>:
  401478:	b538      	push	{r3, r4, r5, lr}
  40147a:	4604      	mov	r4, r0
  40147c:	f240 1259 	movw	r2, #345	; 0x159
  401480:	4929      	ldr	r1, [pc, #164]	; (401528 <_pio_init+0xb0>)
  401482:	3000      	adds	r0, #0
  401484:	bf18      	it	ne
  401486:	2001      	movne	r0, #1
  401488:	4b28      	ldr	r3, [pc, #160]	; (40152c <_pio_init+0xb4>)
  40148a:	4798      	blx	r3
  40148c:	4620      	mov	r0, r4
  40148e:	4b28      	ldr	r3, [pc, #160]	; (401530 <_pio_init+0xb8>)
  401490:	4798      	blx	r3
  401492:	2800      	cmp	r0, #0
  401494:	db43      	blt.n	40151e <_pio_init+0xa6>
  401496:	4d27      	ldr	r5, [pc, #156]	; (401534 <_pio_init+0xbc>)
  401498:	00c2      	lsls	r2, r0, #3
  40149a:	1a11      	subs	r1, r2, r0
  40149c:	008b      	lsls	r3, r1, #2
  40149e:	442b      	add	r3, r5
  4014a0:	6899      	ldr	r1, [r3, #8]
  4014a2:	f8c4 10b0 	str.w	r1, [r4, #176]	; 0xb0
  4014a6:	68d9      	ldr	r1, [r3, #12]
  4014a8:	f8c4 10c0 	str.w	r1, [r4, #192]	; 0xc0
  4014ac:	6919      	ldr	r1, [r3, #16]
  4014ae:	f8c4 10c4 	str.w	r1, [r4, #196]	; 0xc4
  4014b2:	699b      	ldr	r3, [r3, #24]
  4014b4:	f8c4 30d0 	str.w	r3, [r4, #208]	; 0xd0
  4014b8:	1a10      	subs	r0, r2, r0
  4014ba:	0083      	lsls	r3, r0, #2
  4014bc:	442b      	add	r3, r5
  4014be:	695b      	ldr	r3, [r3, #20]
  4014c0:	f8c4 30d4 	str.w	r3, [r4, #212]	; 0xd4
  4014c4:	4620      	mov	r0, r4
  4014c6:	4b1c      	ldr	r3, [pc, #112]	; (401538 <_pio_init+0xc0>)
  4014c8:	4798      	blx	r3
  4014ca:	4428      	add	r0, r5
  4014cc:	f990 3038 	ldrsb.w	r3, [r0, #56]	; 0x38
  if ((int32_t)(IRQn) >= 0)
  4014d0:	2b00      	cmp	r3, #0
  4014d2:	db0c      	blt.n	4014ee <_pio_init+0x76>
    NVIC->ICER[(((uint32_t)IRQn) >> 5UL)] = (uint32_t)(1UL << (((uint32_t)IRQn) & 0x1FUL));
  4014d4:	095a      	lsrs	r2, r3, #5
  4014d6:	f003 001f 	and.w	r0, r3, #31
  4014da:	2101      	movs	r1, #1
  4014dc:	4081      	lsls	r1, r0
  4014de:	3220      	adds	r2, #32
  4014e0:	4816      	ldr	r0, [pc, #88]	; (40153c <_pio_init+0xc4>)
  4014e2:	f840 1022 	str.w	r1, [r0, r2, lsl #2]
  __ASM volatile ("dsb 0xF":::"memory");
  4014e6:	f3bf 8f4f 	dsb	sy
  __ASM volatile ("isb 0xF":::"memory");
  4014ea:	f3bf 8f6f 	isb	sy
  \param [in]      IRQn  Device specific interrupt number.
  \note    IRQn must not be negative.
 */
__STATIC_INLINE void __NVIC_ClearPendingIRQ(IRQn_Type IRQn)
{
  if ((int32_t)(IRQn) >= 0)
  4014ee:	2b00      	cmp	r3, #0
  4014f0:	db08      	blt.n	401504 <_pio_init+0x8c>
  {
    NVIC->ICPR[(((uint32_t)IRQn) >> 5UL)] = (uint32_t)(1UL << (((uint32_t)IRQn) & 0x1FUL));
  4014f2:	095a      	lsrs	r2, r3, #5
  4014f4:	f003 001f 	and.w	r0, r3, #31
  4014f8:	2101      	movs	r1, #1
  4014fa:	4081      	lsls	r1, r0
  4014fc:	3260      	adds	r2, #96	; 0x60
  4014fe:	480f      	ldr	r0, [pc, #60]	; (40153c <_pio_init+0xc4>)
  401500:	f840 1022 	str.w	r1, [r0, r2, lsl #2]
  if ((int32_t)(IRQn) >= 0)
  401504:	2b00      	cmp	r3, #0
  401506:	db0d      	blt.n	401524 <_pio_init+0xac>
    NVIC->ISER[(((uint32_t)IRQn) >> 5UL)] = (uint32_t)(1UL << (((uint32_t)IRQn) & 0x1FUL));
  401508:	0959      	lsrs	r1, r3, #5
  40150a:	f003 031f 	and.w	r3, r3, #31
  40150e:	2201      	movs	r2, #1
  401510:	fa02 f303 	lsl.w	r3, r2, r3
  401514:	4a09      	ldr	r2, [pc, #36]	; (40153c <_pio_init+0xc4>)
  401516:	f842 3021 	str.w	r3, [r2, r1, lsl #2]
  40151a:	2000      	movs	r0, #0
  40151c:	bd38      	pop	{r3, r4, r5, pc}
  40151e:	f06f 0010 	mvn.w	r0, #16
  401522:	bd38      	pop	{r3, r4, r5, pc}
  401524:	2000      	movs	r0, #0
  401526:	bd38      	pop	{r3, r4, r5, pc}
  401528:	00403274 	.word	0x00403274
  40152c:	00401115 	.word	0x00401115
  401530:	0040142d 	.word	0x0040142d
  401534:	00403238 	.word	0x00403238
  401538:	00401405 	.word	0x00401405
  40153c:	e000e100 	.word	0xe000e100

00401540 <PIOB_Handler>:
  401540:	b508      	push	{r3, lr}
  401542:	4b01      	ldr	r3, [pc, #4]	; (401548 <PIOB_Handler+0x8>)
  401544:	4798      	blx	r3
  401546:	bd08      	pop	{r3, pc}
  401548:	00401355 	.word	0x00401355

0040154c <PIOA_Handler>:
  40154c:	b508      	push	{r3, lr}
  40154e:	4b01      	ldr	r3, [pc, #4]	; (401554 <PIOA_Handler+0x8>)
  401550:	4798      	blx	r3
  401552:	bd08      	pop	{r3, pc}
  401554:	00401355 	.word	0x00401355

00401558 <_ext_irq_init>:
  401558:	b538      	push	{r3, r4, r5, lr}
  40155a:	4605      	mov	r5, r0
  40155c:	4804      	ldr	r0, [pc, #16]	; (401570 <_ext_irq_init+0x18>)
  40155e:	4c05      	ldr	r4, [pc, #20]	; (401574 <_ext_irq_init+0x1c>)
  401560:	47a0      	blx	r4
  401562:	4805      	ldr	r0, [pc, #20]	; (401578 <_ext_irq_init+0x20>)
  401564:	47a0      	blx	r4
  401566:	4b05      	ldr	r3, [pc, #20]	; (40157c <_ext_irq_init+0x24>)
  401568:	601d      	str	r5, [r3, #0]
  40156a:	2000      	movs	r0, #0
  40156c:	bd38      	pop	{r3, r4, r5, pc}
  40156e:	bf00      	nop
  401570:	400e0e00 	.word	0x400e0e00
  401574:	00401479 	.word	0x00401479
  401578:	400e1000 	.word	0x400e1000
  40157c:	204000c4 	.word	0x204000c4

00401580 <_ext_irq_enable>:
  401580:	e92d 41f0 	stmdb	sp!, {r4, r5, r6, r7, r8, lr}
  401584:	4604      	mov	r4, r0
  401586:	460f      	mov	r7, r1
  401588:	f8df 8050 	ldr.w	r8, [pc, #80]	; 4015dc <_ext_irq_enable+0x5c>
  40158c:	f44f 72d3 	mov.w	r2, #422	; 0x1a6
  401590:	4641      	mov	r1, r8
  401592:	289f      	cmp	r0, #159	; 0x9f
  401594:	bf8c      	ite	hi
  401596:	2000      	movhi	r0, #0
  401598:	2001      	movls	r0, #1
  40159a:	4e0e      	ldr	r6, [pc, #56]	; (4015d4 <_ext_irq_enable+0x54>)
  40159c:	47b0      	blx	r6
  40159e:	b2e5      	uxtb	r5, r4
  4015a0:	22c3      	movs	r2, #195	; 0xc3
  4015a2:	4641      	mov	r1, r8
  4015a4:	2d9f      	cmp	r5, #159	; 0x9f
  4015a6:	bf8c      	ite	hi
  4015a8:	2000      	movhi	r0, #0
  4015aa:	2001      	movls	r0, #1
  4015ac:	47b0      	blx	r6
  4015ae:	096d      	lsrs	r5, r5, #5
  4015b0:	4b09      	ldr	r3, [pc, #36]	; (4015d8 <_ext_irq_enable+0x58>)
  4015b2:	eb03 2545 	add.w	r5, r3, r5, lsl #9
  4015b6:	f004 041f 	and.w	r4, r4, #31
  4015ba:	b937      	cbnz	r7, 4015ca <_ext_irq_enable+0x4a>
  4015bc:	2301      	movs	r3, #1
  4015be:	fa03 f404 	lsl.w	r4, r3, r4
  4015c2:	646c      	str	r4, [r5, #68]	; 0x44
  4015c4:	2000      	movs	r0, #0
  4015c6:	e8bd 81f0 	ldmia.w	sp!, {r4, r5, r6, r7, r8, pc}
  4015ca:	2301      	movs	r3, #1
  4015cc:	fa03 f404 	lsl.w	r4, r3, r4
  4015d0:	642c      	str	r4, [r5, #64]	; 0x40
  4015d2:	e7f7      	b.n	4015c4 <_ext_irq_enable+0x44>
  4015d4:	00401115 	.word	0x00401115
  4015d8:	400e0e00 	.word	0x400e0e00
  4015dc:	00403274 	.word	0x00403274

004015e0 <_pmc_init_sources>:
  4015e0:	4a14      	ldr	r2, [pc, #80]	; (401634 <_pmc_init_sources+0x54>)
  4015e2:	6a11      	ldr	r1, [r2, #32]
  4015e4:	4b14      	ldr	r3, [pc, #80]	; (401638 <_pmc_init_sources+0x58>)
  4015e6:	430b      	orrs	r3, r1
  4015e8:	6213      	str	r3, [r2, #32]
  4015ea:	4b12      	ldr	r3, [pc, #72]	; (401634 <_pmc_init_sources+0x54>)
  4015ec:	6e9b      	ldr	r3, [r3, #104]	; 0x68
  4015ee:	f413 3f00 	tst.w	r3, #131072	; 0x20000
  4015f2:	d0fa      	beq.n	4015ea <_pmc_init_sources+0xa>
  4015f4:	490f      	ldr	r1, [pc, #60]	; (401634 <_pmc_init_sources+0x54>)
  4015f6:	6a0a      	ldr	r2, [r1, #32]
  4015f8:	f022 0270 	bic.w	r2, r2, #112	; 0x70
  4015fc:	4b0f      	ldr	r3, [pc, #60]	; (40163c <_pmc_init_sources+0x5c>)
  4015fe:	4313      	orrs	r3, r2
  401600:	620b      	str	r3, [r1, #32]
  401602:	4b0c      	ldr	r3, [pc, #48]	; (401634 <_pmc_init_sources+0x54>)
  401604:	6e9b      	ldr	r3, [r3, #104]	; 0x68
  401606:	f413 3f00 	tst.w	r3, #131072	; 0x20000
  40160a:	d0fa      	beq.n	401602 <_pmc_init_sources+0x22>
  40160c:	4b09      	ldr	r3, [pc, #36]	; (401634 <_pmc_init_sources+0x54>)
  40160e:	6a1a      	ldr	r2, [r3, #32]
  401610:	f022 7280 	bic.w	r2, r2, #16777216	; 0x1000000
  401614:	f442 125c 	orr.w	r2, r2, #3604480	; 0x370000
  401618:	621a      	str	r2, [r3, #32]
  40161a:	6a99      	ldr	r1, [r3, #40]	; 0x28
  40161c:	4a08      	ldr	r2, [pc, #32]	; (401640 <_pmc_init_sources+0x60>)
  40161e:	400a      	ands	r2, r1
  401620:	629a      	str	r2, [r3, #40]	; 0x28
  401622:	4a08      	ldr	r2, [pc, #32]	; (401644 <_pmc_init_sources+0x64>)
  401624:	629a      	str	r2, [r3, #40]	; 0x28
  401626:	4b03      	ldr	r3, [pc, #12]	; (401634 <_pmc_init_sources+0x54>)
  401628:	6e9b      	ldr	r3, [r3, #104]	; 0x68
  40162a:	f013 0f02 	tst.w	r3, #2
  40162e:	d0fa      	beq.n	401626 <_pmc_init_sources+0x46>
  401630:	4770      	bx	lr
  401632:	bf00      	nop
  401634:	400e0600 	.word	0x400e0600
  401638:	00370008 	.word	0x00370008
  40163c:	00370020 	.word	0x00370020
  401640:	f800ffff 	.word	0xf800ffff
  401644:	20183f01 	.word	0x20183f01

00401648 <_pmc_init_master_clock>:
  401648:	4a11      	ldr	r2, [pc, #68]	; (401690 <_pmc_init_master_clock+0x48>)
  40164a:	6b13      	ldr	r3, [r2, #48]	; 0x30
  40164c:	f023 0370 	bic.w	r3, r3, #112	; 0x70
  401650:	6313      	str	r3, [r2, #48]	; 0x30
  401652:	4b0f      	ldr	r3, [pc, #60]	; (401690 <_pmc_init_master_clock+0x48>)
  401654:	6e9b      	ldr	r3, [r3, #104]	; 0x68
  401656:	f013 0f08 	tst.w	r3, #8
  40165a:	d0fa      	beq.n	401652 <_pmc_init_master_clock+0xa>
  40165c:	4a0c      	ldr	r2, [pc, #48]	; (401690 <_pmc_init_master_clock+0x48>)
  40165e:	6b13      	ldr	r3, [r2, #48]	; 0x30
  401660:	f423 7340 	bic.w	r3, r3, #768	; 0x300
  401664:	f443 7380 	orr.w	r3, r3, #256	; 0x100
  401668:	6313      	str	r3, [r2, #48]	; 0x30
  40166a:	4b09      	ldr	r3, [pc, #36]	; (401690 <_pmc_init_master_clock+0x48>)
  40166c:	6e9b      	ldr	r3, [r3, #104]	; 0x68
  40166e:	f013 0f08 	tst.w	r3, #8
  401672:	d0fa      	beq.n	40166a <_pmc_init_master_clock+0x22>
  401674:	4a06      	ldr	r2, [pc, #24]	; (401690 <_pmc_init_master_clock+0x48>)
  401676:	6b13      	ldr	r3, [r2, #48]	; 0x30
  401678:	f023 0303 	bic.w	r3, r3, #3
  40167c:	f043 0302 	orr.w	r3, r3, #2
  401680:	6313      	str	r3, [r2, #48]	; 0x30
  401682:	4b03      	ldr	r3, [pc, #12]	; (401690 <_pmc_init_master_clock+0x48>)
  401684:	6e9b      	ldr	r3, [r3, #104]	; 0x68
  401686:	f013 0f08 	tst.w	r3, #8
  40168a:	d0fa      	beq.n	401682 <_pmc_init_master_clock+0x3a>
  40168c:	4770      	bx	lr
  40168e:	bf00      	nop
  401690:	400e0600 	.word	0x400e0600

00401694 <_pmc_init>:
  401694:	b508      	push	{r3, lr}
  401696:	4b02      	ldr	r3, [pc, #8]	; (4016a0 <_pmc_init+0xc>)
  401698:	4798      	blx	r3
  40169a:	4b02      	ldr	r3, [pc, #8]	; (4016a4 <_pmc_init+0x10>)
  40169c:	4798      	blx	r3
  40169e:	bd08      	pop	{r3, pc}
  4016a0:	004015e1 	.word	0x004015e1
  4016a4:	00401649 	.word	0x00401649

004016a8 <_pwm_get_cfg>:
  4016a8:	2300      	movs	r3, #0
  4016aa:	2b01      	cmp	r3, #1
  4016ac:	d80f      	bhi.n	4016ce <_pwm_get_cfg+0x26>
  4016ae:	ebc3 1103 	rsb	r1, r3, r3, lsl #4
  4016b2:	008a      	lsls	r2, r1, #2
  4016b4:	4907      	ldr	r1, [pc, #28]	; (4016d4 <_pwm_get_cfg+0x2c>)
  4016b6:	588a      	ldr	r2, [r1, r2]
  4016b8:	4282      	cmp	r2, r0
  4016ba:	d002      	beq.n	4016c2 <_pwm_get_cfg+0x1a>
  4016bc:	3301      	adds	r3, #1
  4016be:	b2db      	uxtb	r3, r3
  4016c0:	e7f3      	b.n	4016aa <_pwm_get_cfg+0x2>
  4016c2:	ebc3 1303 	rsb	r3, r3, r3, lsl #4
  4016c6:	009a      	lsls	r2, r3, #2
  4016c8:	4608      	mov	r0, r1
  4016ca:	4410      	add	r0, r2
  4016cc:	4770      	bx	lr
  4016ce:	2000      	movs	r0, #0
  4016d0:	4770      	bx	lr
  4016d2:	bf00      	nop
  4016d4:	00403290 	.word	0x00403290

004016d8 <_pwm_init_irq_param>:
  4016d8:	4b06      	ldr	r3, [pc, #24]	; (4016f4 <_pwm_init_irq_param+0x1c>)
  4016da:	4298      	cmp	r0, r3
  4016dc:	d003      	beq.n	4016e6 <_pwm_init_irq_param+0xe>
  4016de:	4b06      	ldr	r3, [pc, #24]	; (4016f8 <_pwm_init_irq_param+0x20>)
  4016e0:	4298      	cmp	r0, r3
  4016e2:	d003      	beq.n	4016ec <_pwm_init_irq_param+0x14>
  4016e4:	4770      	bx	lr
  4016e6:	4b05      	ldr	r3, [pc, #20]	; (4016fc <_pwm_init_irq_param+0x24>)
  4016e8:	6019      	str	r1, [r3, #0]
  4016ea:	e7f8      	b.n	4016de <_pwm_init_irq_param+0x6>
  4016ec:	4b03      	ldr	r3, [pc, #12]	; (4016fc <_pwm_init_irq_param+0x24>)
  4016ee:	6059      	str	r1, [r3, #4]
  4016f0:	e7f8      	b.n	4016e4 <_pwm_init_irq_param+0xc>
  4016f2:	bf00      	nop
  4016f4:	40020000 	.word	0x40020000
  4016f8:	4005c000 	.word	0x4005c000
  4016fc:	204000c8 	.word	0x204000c8

00401700 <_pwm_interrupt_handler>:
  401700:	b508      	push	{r3, lr}
  401702:	6903      	ldr	r3, [r0, #16]
  401704:	69db      	ldr	r3, [r3, #28]
  401706:	b113      	cbz	r3, 40170e <_pwm_interrupt_handler+0xe>
  401708:	6803      	ldr	r3, [r0, #0]
  40170a:	b103      	cbz	r3, 40170e <_pwm_interrupt_handler+0xe>
  40170c:	4798      	blx	r3
  40170e:	bd08      	pop	{r3, pc}

00401710 <PWM0_Handler>:
  401710:	b508      	push	{r3, lr}
  401712:	4b02      	ldr	r3, [pc, #8]	; (40171c <PWM0_Handler+0xc>)
  401714:	6818      	ldr	r0, [r3, #0]
  401716:	4b02      	ldr	r3, [pc, #8]	; (401720 <PWM0_Handler+0x10>)
  401718:	4798      	blx	r3
  40171a:	bd08      	pop	{r3, pc}
  40171c:	204000c8 	.word	0x204000c8
  401720:	00401701 	.word	0x00401701

00401724 <PWM1_Handler>:
  401724:	b508      	push	{r3, lr}
  401726:	4b02      	ldr	r3, [pc, #8]	; (401730 <PWM1_Handler+0xc>)
  401728:	6858      	ldr	r0, [r3, #4]
  40172a:	4b02      	ldr	r3, [pc, #8]	; (401734 <PWM1_Handler+0x10>)
  40172c:	4798      	blx	r3
  40172e:	bd08      	pop	{r3, pc}
  401730:	204000c8 	.word	0x204000c8
  401734:	00401701 	.word	0x00401701

00401738 <_pwm_init>:
  401738:	b5f8      	push	{r3, r4, r5, r6, r7, lr}
  40173a:	4606      	mov	r6, r0
  40173c:	460c      	mov	r4, r1
  40173e:	1c08      	adds	r0, r1, #0
  401740:	bf18      	it	ne
  401742:	2001      	movne	r0, #1
  401744:	f44f 72bf 	mov.w	r2, #382	; 0x17e
  401748:	4944      	ldr	r1, [pc, #272]	; (40185c <_pwm_init+0x124>)
  40174a:	4b45      	ldr	r3, [pc, #276]	; (401860 <_pwm_init+0x128>)
  40174c:	4798      	blx	r3
  40174e:	4620      	mov	r0, r4
  401750:	4b44      	ldr	r3, [pc, #272]	; (401864 <_pwm_init+0x12c>)
  401752:	4798      	blx	r3
  401754:	4605      	mov	r5, r0
  401756:	6134      	str	r4, [r6, #16]
  401758:	6883      	ldr	r3, [r0, #8]
  40175a:	6023      	str	r3, [r4, #0]
  40175c:	68c3      	ldr	r3, [r0, #12]
  40175e:	67e3      	str	r3, [r4, #124]	; 0x7c
  401760:	6903      	ldr	r3, [r0, #16]
  401762:	f8c4 3080 	str.w	r3, [r4, #128]	; 0x80
  401766:	6943      	ldr	r3, [r0, #20]
  401768:	65e3      	str	r3, [r4, #92]	; 0x5c
  40176a:	6983      	ldr	r3, [r0, #24]
  40176c:	66a3      	str	r3, [r4, #104]	; 0x68
  40176e:	69c3      	ldr	r3, [r0, #28]
  401770:	f8c4 30c0 	str.w	r3, [r4, #192]	; 0xc0
  401774:	6a03      	ldr	r3, [r0, #32]
  401776:	66e3      	str	r3, [r4, #108]	; 0x6c
  401778:	6a43      	ldr	r3, [r0, #36]	; 0x24
  40177a:	f8c4 342c 	str.w	r3, [r4, #1068]	; 0x42c
  40177e:	6a83      	ldr	r3, [r0, #40]	; 0x28
  401780:	f8c4 344c 	str.w	r3, [r4, #1100]	; 0x44c
  401784:	2300      	movs	r3, #0
  401786:	e019      	b.n	4017bc <_pwm_init+0x84>
  401788:	6b2f      	ldr	r7, [r5, #48]	; 0x30
  40178a:	0118      	lsls	r0, r3, #4
  40178c:	eb07 0e00 	add.w	lr, r7, r0
  401790:	5c3a      	ldrb	r2, [r7, r0]
  401792:	f8de 1004 	ldr.w	r1, [lr, #4]
  401796:	3210      	adds	r2, #16
  401798:	0152      	lsls	r2, r2, #5
  40179a:	50a1      	str	r1, [r4, r2]
  40179c:	5c3a      	ldrb	r2, [r7, r0]
  40179e:	f8de 100c 	ldr.w	r1, [lr, #12]
  4017a2:	3210      	adds	r2, #16
  4017a4:	eb04 1242 	add.w	r2, r4, r2, lsl #5
  4017a8:	6051      	str	r1, [r2, #4]
  4017aa:	5c3a      	ldrb	r2, [r7, r0]
  4017ac:	f8de 1008 	ldr.w	r1, [lr, #8]
  4017b0:	eb04 1242 	add.w	r2, r4, r2, lsl #5
  4017b4:	f8c2 120c 	str.w	r1, [r2, #524]	; 0x20c
  4017b8:	3301      	adds	r3, #1
  4017ba:	b25b      	sxtb	r3, r3
  4017bc:	6aea      	ldr	r2, [r5, #44]	; 0x2c
  4017be:	4293      	cmp	r3, r2
  4017c0:	d3e2      	bcc.n	401788 <_pwm_init+0x50>
  4017c2:	2300      	movs	r3, #0
  4017c4:	e014      	b.n	4017f0 <_pwm_init+0xb8>
  4017c6:	6ba9      	ldr	r1, [r5, #56]	; 0x38
  4017c8:	eb03 0043 	add.w	r0, r3, r3, lsl #1
  4017cc:	0082      	lsls	r2, r0, #2
  4017ce:	eb01 0e02 	add.w	lr, r1, r2
  4017d2:	5c88      	ldrb	r0, [r1, r2]
  4017d4:	f8de 7004 	ldr.w	r7, [lr, #4]
  4017d8:	eb04 1000 	add.w	r0, r4, r0, lsl #4
  4017dc:	f8c0 7138 	str.w	r7, [r0, #312]	; 0x138
  4017e0:	5c8a      	ldrb	r2, [r1, r2]
  4017e2:	f8de 1008 	ldr.w	r1, [lr, #8]
  4017e6:	3213      	adds	r2, #19
  4017e8:	0112      	lsls	r2, r2, #4
  4017ea:	50a1      	str	r1, [r4, r2]
  4017ec:	3301      	adds	r3, #1
  4017ee:	b25b      	sxtb	r3, r3
  4017f0:	6b6a      	ldr	r2, [r5, #52]	; 0x34
  4017f2:	4293      	cmp	r3, r2
  4017f4:	d3e7      	bcc.n	4017c6 <_pwm_init+0x8e>
  4017f6:	4631      	mov	r1, r6
  4017f8:	4620      	mov	r0, r4
  4017fa:	4b1b      	ldr	r3, [pc, #108]	; (401868 <_pwm_init+0x130>)
  4017fc:	4798      	blx	r3
  4017fe:	f995 3004 	ldrsb.w	r3, [r5, #4]
  if ((int32_t)(IRQn) >= 0)
  401802:	2b00      	cmp	r3, #0
  401804:	db0d      	blt.n	401822 <_pwm_init+0xea>
    NVIC->ICER[(((uint32_t)IRQn) >> 5UL)] = (uint32_t)(1UL << (((uint32_t)IRQn) & 0x1FUL));
  401806:	095a      	lsrs	r2, r3, #5
  401808:	f003 031f 	and.w	r3, r3, #31
  40180c:	2101      	movs	r1, #1
  40180e:	fa01 f303 	lsl.w	r3, r1, r3
  401812:	3220      	adds	r2, #32
  401814:	4915      	ldr	r1, [pc, #84]	; (40186c <_pwm_init+0x134>)
  401816:	f841 3022 	str.w	r3, [r1, r2, lsl #2]
  __ASM volatile ("dsb 0xF":::"memory");
  40181a:	f3bf 8f4f 	dsb	sy
  __ASM volatile ("isb 0xF":::"memory");
  40181e:	f3bf 8f6f 	isb	sy
  401822:	f995 3004 	ldrsb.w	r3, [r5, #4]
  if ((int32_t)(IRQn) >= 0)
  401826:	2b00      	cmp	r3, #0
  401828:	db09      	blt.n	40183e <_pwm_init+0x106>
    NVIC->ICPR[(((uint32_t)IRQn) >> 5UL)] = (uint32_t)(1UL << (((uint32_t)IRQn) & 0x1FUL));
  40182a:	095a      	lsrs	r2, r3, #5
  40182c:	f003 031f 	and.w	r3, r3, #31
  401830:	2101      	movs	r1, #1
  401832:	fa01 f303 	lsl.w	r3, r1, r3
  401836:	3260      	adds	r2, #96	; 0x60
  401838:	490c      	ldr	r1, [pc, #48]	; (40186c <_pwm_init+0x134>)
  40183a:	f841 3022 	str.w	r3, [r1, r2, lsl #2]
  40183e:	f995 3004 	ldrsb.w	r3, [r5, #4]
  if ((int32_t)(IRQn) >= 0)
  401842:	2b00      	cmp	r3, #0
  401844:	db08      	blt.n	401858 <_pwm_init+0x120>
    NVIC->ISER[(((uint32_t)IRQn) >> 5UL)] = (uint32_t)(1UL << (((uint32_t)IRQn) & 0x1FUL));
  401846:	0959      	lsrs	r1, r3, #5
  401848:	f003 031f 	and.w	r3, r3, #31
  40184c:	2201      	movs	r2, #1
  40184e:	fa02 f303 	lsl.w	r3, r2, r3
  401852:	4a06      	ldr	r2, [pc, #24]	; (40186c <_pwm_init+0x134>)
  401854:	f842 3021 	str.w	r3, [r2, r1, lsl #2]
  401858:	2000      	movs	r0, #0
  40185a:	bdf8      	pop	{r3, r4, r5, r6, r7, pc}
  40185c:	00403358 	.word	0x00403358
  401860:	00401115 	.word	0x00401115
  401864:	004016a9 	.word	0x004016a9
  401868:	004016d9 	.word	0x004016d9
  40186c:	e000e100 	.word	0xe000e100

00401870 <_pwm_enable>:
  401870:	b538      	push	{r3, r4, r5, lr}
  401872:	4604      	mov	r4, r0
  401874:	f240 12b5 	movw	r2, #437	; 0x1b5
  401878:	490b      	ldr	r1, [pc, #44]	; (4018a8 <_pwm_enable+0x38>)
  40187a:	3000      	adds	r0, #0
  40187c:	bf18      	it	ne
  40187e:	2001      	movne	r0, #1
  401880:	4b0a      	ldr	r3, [pc, #40]	; (4018ac <_pwm_enable+0x3c>)
  401882:	4798      	blx	r3
  401884:	6920      	ldr	r0, [r4, #16]
  401886:	4b0a      	ldr	r3, [pc, #40]	; (4018b0 <_pwm_enable+0x40>)
  401888:	4798      	blx	r3
  40188a:	2300      	movs	r3, #0
  40188c:	e008      	b.n	4018a0 <_pwm_enable+0x30>
  40188e:	6921      	ldr	r1, [r4, #16]
  401890:	6b05      	ldr	r5, [r0, #48]	; 0x30
  401892:	011a      	lsls	r2, r3, #4
  401894:	5cad      	ldrb	r5, [r5, r2]
  401896:	2201      	movs	r2, #1
  401898:	40aa      	lsls	r2, r5
  40189a:	604a      	str	r2, [r1, #4]
  40189c:	3301      	adds	r3, #1
  40189e:	b25b      	sxtb	r3, r3
  4018a0:	6ac2      	ldr	r2, [r0, #44]	; 0x2c
  4018a2:	4293      	cmp	r3, r2
  4018a4:	d3f3      	bcc.n	40188e <_pwm_enable+0x1e>
  4018a6:	bd38      	pop	{r3, r4, r5, pc}
  4018a8:	00403358 	.word	0x00403358
  4018ac:	00401115 	.word	0x00401115
  4018b0:	004016a9 	.word	0x004016a9

004018b4 <_pwm_is_enabled>:
  4018b4:	b510      	push	{r4, lr}
  4018b6:	4604      	mov	r4, r0
  4018b8:	f44f 72ef 	mov.w	r2, #478	; 0x1de
  4018bc:	4907      	ldr	r1, [pc, #28]	; (4018dc <_pwm_is_enabled+0x28>)
  4018be:	3000      	adds	r0, #0
  4018c0:	bf18      	it	ne
  4018c2:	2001      	movne	r0, #1
  4018c4:	4b06      	ldr	r3, [pc, #24]	; (4018e0 <_pwm_is_enabled+0x2c>)
  4018c6:	4798      	blx	r3
  4018c8:	6923      	ldr	r3, [r4, #16]
  4018ca:	68db      	ldr	r3, [r3, #12]
  4018cc:	f013 0f0f 	tst.w	r3, #15
  4018d0:	d001      	beq.n	4018d6 <_pwm_is_enabled+0x22>
  4018d2:	2001      	movs	r0, #1
  4018d4:	bd10      	pop	{r4, pc}
  4018d6:	2000      	movs	r0, #0
  4018d8:	bd10      	pop	{r4, pc}
  4018da:	bf00      	nop
  4018dc:	00403358 	.word	0x00403358
  4018e0:	00401115 	.word	0x00401115

004018e4 <_pwm_get_pwm>:
  4018e4:	2000      	movs	r0, #0
  4018e6:	4770      	bx	lr

004018e8 <_spi_sync_enable>:
  4018e8:	2301      	movs	r3, #1
  4018ea:	6003      	str	r3, [r0, #0]
  4018ec:	2000      	movs	r0, #0
  4018ee:	4770      	bx	lr

004018f0 <_spi_get_hardware_index>:
  4018f0:	4b04      	ldr	r3, [pc, #16]	; (401904 <_spi_get_hardware_index+0x14>)
  4018f2:	4403      	add	r3, r0
  4018f4:	f3c3 4307 	ubfx	r3, r3, #16, #8
  4018f8:	2b05      	cmp	r3, #5
  4018fa:	d001      	beq.n	401900 <_spi_get_hardware_index+0x10>
  4018fc:	2000      	movs	r0, #0
  4018fe:	4770      	bx	lr
  401900:	2001      	movs	r0, #1
  401902:	4770      	bx	lr
  401904:	bfff8000 	.word	0xbfff8000

00401908 <_spi_m_sync_init>:
  401908:	b570      	push	{r4, r5, r6, lr}
  40190a:	4606      	mov	r6, r0
  40190c:	460c      	mov	r4, r1
  40190e:	4608      	mov	r0, r1
  401910:	4b20      	ldr	r3, [pc, #128]	; (401994 <_spi_m_sync_init+0x8c>)
  401912:	4798      	blx	r3
  401914:	2300      	movs	r3, #0
  401916:	b33b      	cbz	r3, 401968 <_spi_m_sync_init+0x60>
  401918:	2500      	movs	r5, #0
  40191a:	f240 122f 	movw	r2, #303	; 0x12f
  40191e:	491e      	ldr	r1, [pc, #120]	; (401998 <_spi_m_sync_init+0x90>)
  401920:	2e00      	cmp	r6, #0
  401922:	bf18      	it	ne
  401924:	2c00      	cmpne	r4, #0
  401926:	bf14      	ite	ne
  401928:	2001      	movne	r0, #1
  40192a:	2000      	moveq	r0, #0
  40192c:	4b1b      	ldr	r3, [pc, #108]	; (40199c <_spi_m_sync_init+0x94>)
  40192e:	4798      	blx	r3
  401930:	b355      	cbz	r5, 401988 <_spi_m_sync_init+0x80>
  401932:	6923      	ldr	r3, [r4, #16]
  401934:	f413 3f80 	tst.w	r3, #65536	; 0x10000
  401938:	d129      	bne.n	40198e <_spi_m_sync_init+0x86>
  40193a:	2380      	movs	r3, #128	; 0x80
  40193c:	6023      	str	r3, [r4, #0]
  40193e:	6034      	str	r4, [r6, #0]
  401940:	686a      	ldr	r2, [r5, #4]
  401942:	4b17      	ldr	r3, [pc, #92]	; (4019a0 <_spi_m_sync_init+0x98>)
  401944:	4013      	ands	r3, r2
  401946:	6023      	str	r3, [r4, #0]
  401948:	68ab      	ldr	r3, [r5, #8]
  40194a:	4a16      	ldr	r2, [pc, #88]	; (4019a4 <_spi_m_sync_init+0x9c>)
  40194c:	401a      	ands	r2, r3
  40194e:	4b16      	ldr	r3, [pc, #88]	; (4019a8 <_spi_m_sync_init+0xa0>)
  401950:	4313      	orrs	r3, r2
  401952:	6063      	str	r3, [r4, #4]
  401954:	68eb      	ldr	r3, [r5, #12]
  401956:	6323      	str	r3, [r4, #48]	; 0x30
  401958:	8a2b      	ldrh	r3, [r5, #16]
  40195a:	80f3      	strh	r3, [r6, #6]
  40195c:	68eb      	ldr	r3, [r5, #12]
  40195e:	f003 03f0 	and.w	r3, r3, #240	; 0xf0
  401962:	7133      	strb	r3, [r6, #4]
  401964:	2000      	movs	r0, #0
  401966:	bd70      	pop	{r4, r5, r6, pc}
  401968:	eb03 0183 	add.w	r1, r3, r3, lsl #2
  40196c:	008a      	lsls	r2, r1, #2
  40196e:	490f      	ldr	r1, [pc, #60]	; (4019ac <_spi_m_sync_init+0xa4>)
  401970:	5c8a      	ldrb	r2, [r1, r2]
  401972:	4290      	cmp	r0, r2
  401974:	d002      	beq.n	40197c <_spi_m_sync_init+0x74>
  401976:	3301      	adds	r3, #1
  401978:	b2db      	uxtb	r3, r3
  40197a:	e7cc      	b.n	401916 <_spi_m_sync_init+0xe>
  40197c:	eb03 0583 	add.w	r5, r3, r3, lsl #2
  401980:	00ab      	lsls	r3, r5, #2
  401982:	460d      	mov	r5, r1
  401984:	441d      	add	r5, r3
  401986:	e7c8      	b.n	40191a <_spi_m_sync_init+0x12>
  401988:	f06f 000c 	mvn.w	r0, #12
  40198c:	bd70      	pop	{r4, r5, r6, pc}
  40198e:	f06f 0010 	mvn.w	r0, #16
  401992:	bd70      	pop	{r4, r5, r6, pc}
  401994:	004018f1 	.word	0x004018f1
  401998:	00403384 	.word	0x00403384
  40199c:	00401115 	.word	0x00401115
  4019a0:	feffff7c 	.word	0xfeffff7c
  4019a4:	fff1ff6f 	.word	0xfff1ff6f
  4019a8:	000e0010 	.word	0x000e0010
  4019ac:	00403370 	.word	0x00403370

004019b0 <_spi_m_sync_enable>:
  4019b0:	b510      	push	{r4, lr}
  4019b2:	4604      	mov	r4, r0
  4019b4:	b168      	cbz	r0, 4019d2 <_spi_m_sync_enable+0x22>
  4019b6:	6803      	ldr	r3, [r0, #0]
  4019b8:	b14b      	cbz	r3, 4019ce <_spi_m_sync_enable+0x1e>
  4019ba:	2001      	movs	r0, #1
  4019bc:	f240 126d 	movw	r2, #365	; 0x16d
  4019c0:	4905      	ldr	r1, [pc, #20]	; (4019d8 <_spi_m_sync_enable+0x28>)
  4019c2:	4b06      	ldr	r3, [pc, #24]	; (4019dc <_spi_m_sync_enable+0x2c>)
  4019c4:	4798      	blx	r3
  4019c6:	6820      	ldr	r0, [r4, #0]
  4019c8:	4b05      	ldr	r3, [pc, #20]	; (4019e0 <_spi_m_sync_enable+0x30>)
  4019ca:	4798      	blx	r3
  4019cc:	bd10      	pop	{r4, pc}
  4019ce:	2000      	movs	r0, #0
  4019d0:	e7f4      	b.n	4019bc <_spi_m_sync_enable+0xc>
  4019d2:	2000      	movs	r0, #0
  4019d4:	e7f2      	b.n	4019bc <_spi_m_sync_enable+0xc>
  4019d6:	bf00      	nop
  4019d8:	00403384 	.word	0x00403384
  4019dc:	00401115 	.word	0x00401115
  4019e0:	004018e9 	.word	0x004018e9

004019e4 <_spi_m_sync_trans>:
  4019e4:	e92d 41f0 	stmdb	sp!, {r4, r5, r6, r7, r8, lr}
  4019e8:	b086      	sub	sp, #24
  4019ea:	4607      	mov	r7, r0
  4019ec:	460d      	mov	r5, r1
  4019ee:	6804      	ldr	r4, [r0, #0]
  4019f0:	680b      	ldr	r3, [r1, #0]
  4019f2:	9301      	str	r3, [sp, #4]
  4019f4:	684b      	ldr	r3, [r1, #4]
  4019f6:	9302      	str	r3, [sp, #8]
  4019f8:	2300      	movs	r3, #0
  4019fa:	9303      	str	r3, [sp, #12]
  4019fc:	9304      	str	r3, [sp, #16]
  4019fe:	7903      	ldrb	r3, [r0, #4]
  401a00:	f88d 3014 	strb.w	r3, [sp, #20]
  401a04:	1c26      	adds	r6, r4, #0
  401a06:	bf18      	it	ne
  401a08:	2601      	movne	r6, #1
  401a0a:	f44f 720b 	mov.w	r2, #556	; 0x22c
  401a0e:	4933      	ldr	r1, [pc, #204]	; (401adc <_spi_m_sync_trans+0xf8>)
  401a10:	2800      	cmp	r0, #0
  401a12:	bf0c      	ite	eq
  401a14:	2000      	moveq	r0, #0
  401a16:	f006 0001 	andne.w	r0, r6, #1
  401a1a:	4b31      	ldr	r3, [pc, #196]	; (401ae0 <_spi_m_sync_trans+0xfc>)
  401a1c:	4798      	blx	r3
  401a1e:	6923      	ldr	r3, [r4, #16]
  401a20:	f413 3f80 	tst.w	r3, #65536	; 0x10000
  401a24:	d122      	bne.n	401a6c <_spi_m_sync_trans+0x88>
  401a26:	f06f 0013 	mvn.w	r0, #19
  401a2a:	e053      	b.n	401ad4 <_spi_m_sync_trans+0xf0>
  401a2c:	2300      	movs	r3, #0
  401a2e:	e035      	b.n	401a9c <_spi_m_sync_trans+0xb8>
  401a30:	7850      	ldrb	r0, [r2, #1]
  401a32:	ea41 2100 	orr.w	r1, r1, r0, lsl #8
  401a36:	3202      	adds	r2, #2
  401a38:	9201      	str	r2, [sp, #4]
  401a3a:	3301      	adds	r3, #1
  401a3c:	9303      	str	r3, [sp, #12]
  401a3e:	60e1      	str	r1, [r4, #12]
  401a40:	f8d4 8010 	ldr.w	r8, [r4, #16]
  401a44:	f240 221d 	movw	r2, #541	; 0x21d
  401a48:	4924      	ldr	r1, [pc, #144]	; (401adc <_spi_m_sync_trans+0xf8>)
  401a4a:	4630      	mov	r0, r6
  401a4c:	4b24      	ldr	r3, [pc, #144]	; (401ae0 <_spi_m_sync_trans+0xfc>)
  401a4e:	4798      	blx	r3
  401a50:	f018 0f08 	tst.w	r8, #8
  401a54:	d038      	beq.n	401ac8 <_spi_m_sync_trans+0xe4>
  401a56:	f06f 0012 	mvn.w	r0, #18
  401a5a:	2800      	cmp	r0, #0
  401a5c:	db36      	blt.n	401acc <_spi_m_sync_trans+0xe8>
  401a5e:	9803      	ldr	r0, [sp, #12]
  401a60:	68ab      	ldr	r3, [r5, #8]
  401a62:	4298      	cmp	r0, r3
  401a64:	d302      	bcc.n	401a6c <_spi_m_sync_trans+0x88>
  401a66:	9a04      	ldr	r2, [sp, #16]
  401a68:	4293      	cmp	r3, r2
  401a6a:	d92f      	bls.n	401acc <_spi_m_sync_trans+0xe8>
  401a6c:	6923      	ldr	r3, [r4, #16]
  401a6e:	f013 0f01 	tst.w	r3, #1
  401a72:	d0db      	beq.n	401a2c <_spi_m_sync_trans+0x48>
  401a74:	68a3      	ldr	r3, [r4, #8]
  401a76:	b29b      	uxth	r3, r3
  401a78:	9a02      	ldr	r2, [sp, #8]
  401a7a:	b15a      	cbz	r2, 401a94 <_spi_m_sync_trans+0xb0>
  401a7c:	1c51      	adds	r1, r2, #1
  401a7e:	9102      	str	r1, [sp, #8]
  401a80:	7013      	strb	r3, [r2, #0]
  401a82:	f89d 2014 	ldrb.w	r2, [sp, #20]
  401a86:	2a01      	cmp	r2, #1
  401a88:	d904      	bls.n	401a94 <_spi_m_sync_trans+0xb0>
  401a8a:	460a      	mov	r2, r1
  401a8c:	3101      	adds	r1, #1
  401a8e:	9102      	str	r1, [sp, #8]
  401a90:	0a1b      	lsrs	r3, r3, #8
  401a92:	7013      	strb	r3, [r2, #0]
  401a94:	9b04      	ldr	r3, [sp, #16]
  401a96:	3301      	adds	r3, #1
  401a98:	9304      	str	r3, [sp, #16]
  401a9a:	2301      	movs	r3, #1
  401a9c:	2b00      	cmp	r3, #0
  401a9e:	d1cf      	bne.n	401a40 <_spi_m_sync_trans+0x5c>
  401aa0:	9b03      	ldr	r3, [sp, #12]
  401aa2:	9a04      	ldr	r2, [sp, #16]
  401aa4:	429a      	cmp	r2, r3
  401aa6:	d3cb      	bcc.n	401a40 <_spi_m_sync_trans+0x5c>
  401aa8:	88f9      	ldrh	r1, [r7, #6]
  401aaa:	6922      	ldr	r2, [r4, #16]
  401aac:	f012 0f02 	tst.w	r2, #2
  401ab0:	d0c6      	beq.n	401a40 <_spi_m_sync_trans+0x5c>
  401ab2:	9a01      	ldr	r2, [sp, #4]
  401ab4:	2a00      	cmp	r2, #0
  401ab6:	d0c0      	beq.n	401a3a <_spi_m_sync_trans+0x56>
  401ab8:	1c51      	adds	r1, r2, #1
  401aba:	9101      	str	r1, [sp, #4]
  401abc:	7811      	ldrb	r1, [r2, #0]
  401abe:	f89d 0014 	ldrb.w	r0, [sp, #20]
  401ac2:	2801      	cmp	r0, #1
  401ac4:	d8b4      	bhi.n	401a30 <_spi_m_sync_trans+0x4c>
  401ac6:	e7b8      	b.n	401a3a <_spi_m_sync_trans+0x56>
  401ac8:	2000      	movs	r0, #0
  401aca:	e7c6      	b.n	401a5a <_spi_m_sync_trans+0x76>
  401acc:	6923      	ldr	r3, [r4, #16]
  401ace:	f413 7f00 	tst.w	r3, #512	; 0x200
  401ad2:	d0fb      	beq.n	401acc <_spi_m_sync_trans+0xe8>
  401ad4:	b006      	add	sp, #24
  401ad6:	e8bd 81f0 	ldmia.w	sp!, {r4, r5, r6, r7, r8, pc}
  401ada:	bf00      	nop
  401adc:	00403384 	.word	0x00403384
  401ae0:	00401115 	.word	0x00401115

00401ae4 <_spi_get_spi_m_sync>:
  401ae4:	2000      	movs	r0, #0
  401ae6:	4770      	bx	lr

00401ae8 <_system_time_init>:
  401ae8:	4b03      	ldr	r3, [pc, #12]	; (401af8 <_system_time_init+0x10>)
  401aea:	f06f 427f 	mvn.w	r2, #4278190080	; 0xff000000
  401aee:	605a      	str	r2, [r3, #4]
  401af0:	2205      	movs	r2, #5
  401af2:	601a      	str	r2, [r3, #0]
  401af4:	4770      	bx	lr
  401af6:	bf00      	nop
  401af8:	e000e010 	.word	0xe000e010

00401afc <_delay_init>:
  401afc:	b508      	push	{r3, lr}
  401afe:	4b01      	ldr	r3, [pc, #4]	; (401b04 <_delay_init+0x8>)
  401b00:	4798      	blx	r3
  401b02:	bd08      	pop	{r3, pc}
  401b04:	00401ae9 	.word	0x00401ae9

00401b08 <_delay_cycles>:
  401b08:	0e08      	lsrs	r0, r1, #24
  401b0a:	e00d      	b.n	401b28 <_delay_cycles+0x20>
  401b0c:	4b0d      	ldr	r3, [pc, #52]	; (401b44 <_delay_cycles+0x3c>)
  401b0e:	f06f 407f 	mvn.w	r0, #4278190080	; 0xff000000
  401b12:	6058      	str	r0, [r3, #4]
  401b14:	6098      	str	r0, [r3, #8]
  401b16:	4b0b      	ldr	r3, [pc, #44]	; (401b44 <_delay_cycles+0x3c>)
  401b18:	681b      	ldr	r3, [r3, #0]
  401b1a:	f413 3f80 	tst.w	r3, #65536	; 0x10000
  401b1e:	d0fa      	beq.n	401b16 <_delay_cycles+0xe>
  401b20:	f101 417f 	add.w	r1, r1, #4278190080	; 0xff000000
  401b24:	3101      	adds	r1, #1
  401b26:	4610      	mov	r0, r2
  401b28:	1e43      	subs	r3, r0, #1
  401b2a:	b2da      	uxtb	r2, r3
  401b2c:	2800      	cmp	r0, #0
  401b2e:	d1ed      	bne.n	401b0c <_delay_cycles+0x4>
  401b30:	4b04      	ldr	r3, [pc, #16]	; (401b44 <_delay_cycles+0x3c>)
  401b32:	6059      	str	r1, [r3, #4]
  401b34:	6099      	str	r1, [r3, #8]
  401b36:	4b03      	ldr	r3, [pc, #12]	; (401b44 <_delay_cycles+0x3c>)
  401b38:	681b      	ldr	r3, [r3, #0]
  401b3a:	f413 3f80 	tst.w	r3, #65536	; 0x10000
  401b3e:	d0fa      	beq.n	401b36 <_delay_cycles+0x2e>
  401b40:	4770      	bx	lr
  401b42:	bf00      	nop
  401b44:	e000e010 	.word	0xe000e010

00401b48 <get_cfg>:
  401b48:	2300      	movs	r3, #0
  401b4a:	2b01      	cmp	r3, #1
  401b4c:	d815      	bhi.n	401b7a <get_cfg+0x32>
  401b4e:	b410      	push	{r4}
  401b50:	eb03 01c3 	add.w	r1, r3, r3, lsl #3
  401b54:	008a      	lsls	r2, r1, #2
  401b56:	490a      	ldr	r1, [pc, #40]	; (401b80 <get_cfg+0x38>)
  401b58:	588a      	ldr	r2, [r1, r2]
  401b5a:	4282      	cmp	r2, r0
  401b5c:	d007      	beq.n	401b6e <get_cfg+0x26>
  401b5e:	3301      	adds	r3, #1
  401b60:	b2db      	uxtb	r3, r3
  401b62:	2b01      	cmp	r3, #1
  401b64:	d9f4      	bls.n	401b50 <get_cfg+0x8>
  401b66:	2000      	movs	r0, #0
  401b68:	f85d 4b04 	ldr.w	r4, [sp], #4
  401b6c:	4770      	bx	lr
  401b6e:	eb03 04c3 	add.w	r4, r3, r3, lsl #3
  401b72:	00a3      	lsls	r3, r4, #2
  401b74:	4608      	mov	r0, r1
  401b76:	4418      	add	r0, r3
  401b78:	e7f6      	b.n	401b68 <get_cfg+0x20>
  401b7a:	2000      	movs	r0, #0
  401b7c:	4770      	bx	lr
  401b7e:	bf00      	nop
  401b80:	20400000 	.word	0x20400000

00401b84 <_tc_init_irq_param>:
  401b84:	4b06      	ldr	r3, [pc, #24]	; (401ba0 <_tc_init_irq_param+0x1c>)
  401b86:	4298      	cmp	r0, r3
  401b88:	d003      	beq.n	401b92 <_tc_init_irq_param+0xe>
  401b8a:	4b06      	ldr	r3, [pc, #24]	; (401ba4 <_tc_init_irq_param+0x20>)
  401b8c:	4298      	cmp	r0, r3
  401b8e:	d003      	beq.n	401b98 <_tc_init_irq_param+0x14>
  401b90:	4770      	bx	lr
  401b92:	4b05      	ldr	r3, [pc, #20]	; (401ba8 <_tc_init_irq_param+0x24>)
  401b94:	6019      	str	r1, [r3, #0]
  401b96:	e7f8      	b.n	401b8a <_tc_init_irq_param+0x6>
  401b98:	4b03      	ldr	r3, [pc, #12]	; (401ba8 <_tc_init_irq_param+0x24>)
  401b9a:	6059      	str	r1, [r3, #4]
  401b9c:	e7f8      	b.n	401b90 <_tc_init_irq_param+0xc>
  401b9e:	bf00      	nop
  401ba0:	4000c000 	.word	0x4000c000
  401ba4:	40010000 	.word	0x40010000
  401ba8:	204000e8 	.word	0x204000e8

00401bac <tc_interrupt_handler>:
  401bac:	b508      	push	{r3, lr}
  401bae:	68c3      	ldr	r3, [r0, #12]
  401bb0:	6a1b      	ldr	r3, [r3, #32]
  401bb2:	f013 0f10 	tst.w	r3, #16
  401bb6:	d100      	bne.n	401bba <tc_interrupt_handler+0xe>
  401bb8:	bd08      	pop	{r3, pc}
  401bba:	6803      	ldr	r3, [r0, #0]
  401bbc:	4798      	blx	r3
  401bbe:	e7fb      	b.n	401bb8 <tc_interrupt_handler+0xc>

00401bc0 <_timer_init>:
  401bc0:	b5f8      	push	{r3, r4, r5, r6, r7, lr}
  401bc2:	4607      	mov	r7, r0
  401bc4:	460c      	mov	r4, r1
  401bc6:	4608      	mov	r0, r1
  401bc8:	4b27      	ldr	r3, [pc, #156]	; (401c68 <_timer_init+0xa8>)
  401bca:	4798      	blx	r3
  401bcc:	4605      	mov	r5, r0
  401bce:	6886      	ldr	r6, [r0, #8]
  401bd0:	60fc      	str	r4, [r7, #12]
  401bd2:	2296      	movs	r2, #150	; 0x96
  401bd4:	4925      	ldr	r1, [pc, #148]	; (401c6c <_timer_init+0xac>)
  401bd6:	2001      	movs	r0, #1
  401bd8:	4b25      	ldr	r3, [pc, #148]	; (401c70 <_timer_init+0xb0>)
  401bda:	4798      	blx	r3
  401bdc:	f416 4f00 	tst.w	r6, #32768	; 0x8000
  401be0:	d001      	beq.n	401be6 <_timer_init+0x26>
  401be2:	f446 2614 	orr.w	r6, r6, #606208	; 0x94000
  401be6:	6066      	str	r6, [r4, #4]
  401be8:	696b      	ldr	r3, [r5, #20]
  401bea:	6163      	str	r3, [r4, #20]
  401bec:	69ab      	ldr	r3, [r5, #24]
  401bee:	61a3      	str	r3, [r4, #24]
  401bf0:	68eb      	ldr	r3, [r5, #12]
  401bf2:	6323      	str	r3, [r4, #48]	; 0x30
  401bf4:	69eb      	ldr	r3, [r5, #28]
  401bf6:	61e3      	str	r3, [r4, #28]
  401bf8:	2310      	movs	r3, #16
  401bfa:	6263      	str	r3, [r4, #36]	; 0x24
  401bfc:	692b      	ldr	r3, [r5, #16]
  401bfe:	f8c4 30d8 	str.w	r3, [r4, #216]	; 0xd8
  401c02:	4639      	mov	r1, r7
  401c04:	4620      	mov	r0, r4
  401c06:	4b1b      	ldr	r3, [pc, #108]	; (401c74 <_timer_init+0xb4>)
  401c08:	4798      	blx	r3
  401c0a:	f995 3004 	ldrsb.w	r3, [r5, #4]
  if ((int32_t)(IRQn) >= 0)
  401c0e:	2b00      	cmp	r3, #0
  401c10:	db0d      	blt.n	401c2e <_timer_init+0x6e>
    NVIC->ICER[(((uint32_t)IRQn) >> 5UL)] = (uint32_t)(1UL << (((uint32_t)IRQn) & 0x1FUL));
  401c12:	095a      	lsrs	r2, r3, #5
  401c14:	f003 031f 	and.w	r3, r3, #31
  401c18:	2101      	movs	r1, #1
  401c1a:	fa01 f303 	lsl.w	r3, r1, r3
  401c1e:	3220      	adds	r2, #32
  401c20:	4915      	ldr	r1, [pc, #84]	; (401c78 <_timer_init+0xb8>)
  401c22:	f841 3022 	str.w	r3, [r1, r2, lsl #2]
  __ASM volatile ("dsb 0xF":::"memory");
  401c26:	f3bf 8f4f 	dsb	sy
  __ASM volatile ("isb 0xF":::"memory");
  401c2a:	f3bf 8f6f 	isb	sy
  401c2e:	f995 3004 	ldrsb.w	r3, [r5, #4]
  if ((int32_t)(IRQn) >= 0)
  401c32:	2b00      	cmp	r3, #0
  401c34:	db09      	blt.n	401c4a <_timer_init+0x8a>
    NVIC->ICPR[(((uint32_t)IRQn) >> 5UL)] = (uint32_t)(1UL << (((uint32_t)IRQn) & 0x1FUL));
  401c36:	095a      	lsrs	r2, r3, #5
  401c38:	f003 031f 	and.w	r3, r3, #31
  401c3c:	2101      	movs	r1, #1
  401c3e:	fa01 f303 	lsl.w	r3, r1, r3
  401c42:	3260      	adds	r2, #96	; 0x60
  401c44:	490c      	ldr	r1, [pc, #48]	; (401c78 <_timer_init+0xb8>)
  401c46:	f841 3022 	str.w	r3, [r1, r2, lsl #2]
  401c4a:	f995 3004 	ldrsb.w	r3, [r5, #4]
  if ((int32_t)(IRQn) >= 0)
  401c4e:	2b00      	cmp	r3, #0
  401c50:	db08      	blt.n	401c64 <_timer_init+0xa4>
    NVIC->ISER[(((uint32_t)IRQn) >> 5UL)] = (uint32_t)(1UL << (((uint32_t)IRQn) & 0x1FUL));
  401c52:	0959      	lsrs	r1, r3, #5
  401c54:	f003 031f 	and.w	r3, r3, #31
  401c58:	2201      	movs	r2, #1
  401c5a:	fa02 f303 	lsl.w	r3, r2, r3
  401c5e:	4a06      	ldr	r2, [pc, #24]	; (401c78 <_timer_init+0xb8>)
  401c60:	f842 3021 	str.w	r3, [r2, r1, lsl #2]
  401c64:	2000      	movs	r0, #0
  401c66:	bdf8      	pop	{r3, r4, r5, r6, r7, pc}
  401c68:	00401b49 	.word	0x00401b49
  401c6c:	0040339c 	.word	0x0040339c
  401c70:	00401115 	.word	0x00401115
  401c74:	00401b85 	.word	0x00401b85
  401c78:	e000e100 	.word	0xe000e100

00401c7c <_timer_start>:
  401c7c:	68c3      	ldr	r3, [r0, #12]
  401c7e:	2205      	movs	r2, #5
  401c80:	601a      	str	r2, [r3, #0]
  401c82:	4770      	bx	lr

00401c84 <_timer_is_started>:
  401c84:	68c3      	ldr	r3, [r0, #12]
  401c86:	6a18      	ldr	r0, [r3, #32]
  401c88:	f3c0 4000 	ubfx	r0, r0, #16, #1
  401c8c:	4770      	bx	lr
	...

00401c90 <_timer_set_irq>:
  401c90:	b508      	push	{r3, lr}
  401c92:	68c0      	ldr	r0, [r0, #12]
  401c94:	4b02      	ldr	r3, [pc, #8]	; (401ca0 <_timer_set_irq+0x10>)
  401c96:	4798      	blx	r3
  401c98:	7900      	ldrb	r0, [r0, #4]
  401c9a:	4b02      	ldr	r3, [pc, #8]	; (401ca4 <_timer_set_irq+0x14>)
  401c9c:	4798      	blx	r3
  401c9e:	bd08      	pop	{r3, pc}
  401ca0:	00401b49 	.word	0x00401b49
  401ca4:	00401295 	.word	0x00401295

00401ca8 <_tc_get_timer>:
  401ca8:	2000      	movs	r0, #0
  401caa:	4770      	bx	lr

00401cac <TC0_Handler>:
  401cac:	b508      	push	{r3, lr}
  401cae:	4b02      	ldr	r3, [pc, #8]	; (401cb8 <TC0_Handler+0xc>)
  401cb0:	6818      	ldr	r0, [r3, #0]
  401cb2:	4b02      	ldr	r3, [pc, #8]	; (401cbc <TC0_Handler+0x10>)
  401cb4:	4798      	blx	r3
  401cb6:	bd08      	pop	{r3, pc}
  401cb8:	204000e8 	.word	0x204000e8
  401cbc:	00401bad 	.word	0x00401bad

00401cc0 <TC3_Handler>:
  401cc0:	b508      	push	{r3, lr}
  401cc2:	4b02      	ldr	r3, [pc, #8]	; (401ccc <TC3_Handler+0xc>)
  401cc4:	6858      	ldr	r0, [r3, #4]
  401cc6:	4b02      	ldr	r3, [pc, #8]	; (401cd0 <TC3_Handler+0x10>)
  401cc8:	4798      	blx	r3
  401cca:	bd08      	pop	{r3, pc}
  401ccc:	204000e8 	.word	0x204000e8
  401cd0:	00401bad 	.word	0x00401bad

00401cd4 <_get_i2cm_sync_cfg>:
  401cd4:	2300      	movs	r3, #0
  401cd6:	b13b      	cbz	r3, 401ce8 <_get_i2cm_sync_cfg+0x14>
  401cd8:	2000      	movs	r0, #0
  401cda:	4770      	bx	lr
  401cdc:	eb03 0443 	add.w	r4, r3, r3, lsl #1
  401ce0:	00e3      	lsls	r3, r4, #3
  401ce2:	4608      	mov	r0, r1
  401ce4:	4418      	add	r0, r3
  401ce6:	e00c      	b.n	401d02 <_get_i2cm_sync_cfg+0x2e>
  401ce8:	b410      	push	{r4}
  401cea:	eb03 0143 	add.w	r1, r3, r3, lsl #1
  401cee:	00ca      	lsls	r2, r1, #3
  401cf0:	4905      	ldr	r1, [pc, #20]	; (401d08 <_get_i2cm_sync_cfg+0x34>)
  401cf2:	588a      	ldr	r2, [r1, r2]
  401cf4:	4282      	cmp	r2, r0
  401cf6:	d0f1      	beq.n	401cdc <_get_i2cm_sync_cfg+0x8>
  401cf8:	3301      	adds	r3, #1
  401cfa:	b2db      	uxtb	r3, r3
  401cfc:	2b00      	cmp	r3, #0
  401cfe:	d0f4      	beq.n	401cea <_get_i2cm_sync_cfg+0x16>
  401d00:	2000      	movs	r0, #0
  401d02:	f85d 4b04 	ldr.w	r4, [sp], #4
  401d06:	4770      	bx	lr
  401d08:	004033b0 	.word	0x004033b0

00401d0c <_i2c_m_sync_init>:
  401d0c:	b538      	push	{r3, r4, r5, lr}
  401d0e:	4604      	mov	r4, r0
  401d10:	460d      	mov	r5, r1
  401d12:	2800      	cmp	r0, #0
  401d14:	bf18      	it	ne
  401d16:	2900      	cmpne	r1, #0
  401d18:	bf14      	ite	ne
  401d1a:	2001      	movne	r0, #1
  401d1c:	2000      	moveq	r0, #0
  401d1e:	2278      	movs	r2, #120	; 0x78
  401d20:	4909      	ldr	r1, [pc, #36]	; (401d48 <_i2c_m_sync_init+0x3c>)
  401d22:	4b0a      	ldr	r3, [pc, #40]	; (401d4c <_i2c_m_sync_init+0x40>)
  401d24:	4798      	blx	r3
  401d26:	6125      	str	r5, [r4, #16]
  401d28:	4628      	mov	r0, r5
  401d2a:	4b09      	ldr	r3, [pc, #36]	; (401d50 <_i2c_m_sync_init+0x44>)
  401d2c:	4798      	blx	r3
  401d2e:	6843      	ldr	r3, [r0, #4]
  401d30:	602b      	str	r3, [r5, #0]
  401d32:	6923      	ldr	r3, [r4, #16]
  401d34:	6882      	ldr	r2, [r0, #8]
  401d36:	639a      	str	r2, [r3, #56]	; 0x38
  401d38:	6923      	ldr	r3, [r4, #16]
  401d3a:	68c2      	ldr	r2, [r0, #12]
  401d3c:	645a      	str	r2, [r3, #68]	; 0x44
  401d3e:	6923      	ldr	r3, [r4, #16]
  401d40:	6902      	ldr	r2, [r0, #16]
  401d42:	611a      	str	r2, [r3, #16]
  401d44:	2000      	movs	r0, #0
  401d46:	bd38      	pop	{r3, r4, r5, pc}
  401d48:	004033c8 	.word	0x004033c8
  401d4c:	00401115 	.word	0x00401115
  401d50:	00401cd5 	.word	0x00401cd5

00401d54 <_i2c_m_sync_transfer>:
  401d54:	b538      	push	{r3, r4, r5, lr}
  401d56:	4604      	mov	r4, r0
  401d58:	460d      	mov	r5, r1
  401d5a:	2800      	cmp	r0, #0
  401d5c:	bf18      	it	ne
  401d5e:	2900      	cmpne	r1, #0
  401d60:	bf14      	ite	ne
  401d62:	2001      	movne	r0, #1
  401d64:	2000      	moveq	r0, #0
  401d66:	22ba      	movs	r2, #186	; 0xba
  401d68:	4952      	ldr	r1, [pc, #328]	; (401eb4 <_i2c_m_sync_transfer+0x160>)
  401d6a:	4b53      	ldr	r3, [pc, #332]	; (401eb8 <_i2c_m_sync_transfer+0x164>)
  401d6c:	4798      	blx	r3
  401d6e:	8863      	ldrh	r3, [r4, #2]
  401d70:	f413 7f80 	tst.w	r3, #256	; 0x100
  401d74:	f040 809a 	bne.w	401eac <_i2c_m_sync_transfer+0x158>
  401d78:	886b      	ldrh	r3, [r5, #2]
  401d7a:	f013 0f01 	tst.w	r3, #1
  401d7e:	d118      	bne.n	401db2 <_i2c_m_sync_transfer+0x5e>
  401d80:	886b      	ldrh	r3, [r5, #2]
  401d82:	b29b      	uxth	r3, r3
  401d84:	f443 7380 	orr.w	r3, r3, #256	; 0x100
  401d88:	806b      	strh	r3, [r5, #2]
  401d8a:	882b      	ldrh	r3, [r5, #0]
  401d8c:	f413 6f80 	tst.w	r3, #1024	; 0x400
  401d90:	d05f      	beq.n	401e52 <_i2c_m_sync_transfer+0xfe>
  401d92:	6922      	ldr	r2, [r4, #16]
  401d94:	0a1b      	lsrs	r3, r3, #8
  401d96:	f043 0378 	orr.w	r3, r3, #120	; 0x78
  401d9a:	041b      	lsls	r3, r3, #16
  401d9c:	f403 03fe 	and.w	r3, r3, #8323072	; 0x7f0000
  401da0:	f443 7380 	orr.w	r3, r3, #256	; 0x100
  401da4:	6053      	str	r3, [r2, #4]
  401da6:	6923      	ldr	r3, [r4, #16]
  401da8:	782a      	ldrb	r2, [r5, #0]
  401daa:	60da      	str	r2, [r3, #12]
  401dac:	2000      	movs	r0, #0
  401dae:	4601      	mov	r1, r0
  401db0:	e05c      	b.n	401e6c <_i2c_m_sync_transfer+0x118>
  401db2:	886b      	ldrh	r3, [r5, #2]
  401db4:	b29b      	uxth	r3, r3
  401db6:	f443 7380 	orr.w	r3, r3, #256	; 0x100
  401dba:	806b      	strh	r3, [r5, #2]
  401dbc:	882b      	ldrh	r3, [r5, #0]
  401dbe:	f413 6f80 	tst.w	r3, #1024	; 0x400
  401dc2:	d022      	beq.n	401e0a <_i2c_m_sync_transfer+0xb6>
  401dc4:	6922      	ldr	r2, [r4, #16]
  401dc6:	0a1b      	lsrs	r3, r3, #8
  401dc8:	f043 0378 	orr.w	r3, r3, #120	; 0x78
  401dcc:	041b      	lsls	r3, r3, #16
  401dce:	f403 03fe 	and.w	r3, r3, #8323072	; 0x7f0000
  401dd2:	f443 5388 	orr.w	r3, r3, #4352	; 0x1100
  401dd6:	6053      	str	r3, [r2, #4]
  401dd8:	6923      	ldr	r3, [r4, #16]
  401dda:	782a      	ldrb	r2, [r5, #0]
  401ddc:	60da      	str	r2, [r3, #12]
  401dde:	6923      	ldr	r3, [r4, #16]
  401de0:	686a      	ldr	r2, [r5, #4]
  401de2:	2a01      	cmp	r2, #1
  401de4:	d019      	beq.n	401e1a <_i2c_m_sync_transfer+0xc6>
  401de6:	2201      	movs	r2, #1
  401de8:	601a      	str	r2, [r3, #0]
  401dea:	2100      	movs	r1, #0
  401dec:	686b      	ldr	r3, [r5, #4]
  401dee:	4299      	cmp	r1, r3
  401df0:	d222      	bcs.n	401e38 <_i2c_m_sync_transfer+0xe4>
  401df2:	6923      	ldr	r3, [r4, #16]
  401df4:	6a1a      	ldr	r2, [r3, #32]
  401df6:	f012 0f02 	tst.w	r2, #2
  401dfa:	d110      	bne.n	401e1e <_i2c_m_sync_transfer+0xca>
  401dfc:	6a1b      	ldr	r3, [r3, #32]
  401dfe:	f413 7f80 	tst.w	r3, #256	; 0x100
  401e02:	d0f6      	beq.n	401df2 <_i2c_m_sync_transfer+0x9e>
  401e04:	f06f 0001 	mvn.w	r0, #1
  401e08:	bd38      	pop	{r3, r4, r5, pc}
  401e0a:	6922      	ldr	r2, [r4, #16]
  401e0c:	041b      	lsls	r3, r3, #16
  401e0e:	f403 03fe 	and.w	r3, r3, #8323072	; 0x7f0000
  401e12:	f443 5380 	orr.w	r3, r3, #4096	; 0x1000
  401e16:	6053      	str	r3, [r2, #4]
  401e18:	e7e1      	b.n	401dde <_i2c_m_sync_transfer+0x8a>
  401e1a:	2203      	movs	r2, #3
  401e1c:	e7e4      	b.n	401de8 <_i2c_m_sync_transfer+0x94>
  401e1e:	68aa      	ldr	r2, [r5, #8]
  401e20:	6b1b      	ldr	r3, [r3, #48]	; 0x30
  401e22:	5453      	strb	r3, [r2, r1]
  401e24:	686b      	ldr	r3, [r5, #4]
  401e26:	3b02      	subs	r3, #2
  401e28:	4299      	cmp	r1, r3
  401e2a:	d001      	beq.n	401e30 <_i2c_m_sync_transfer+0xdc>
  401e2c:	3101      	adds	r1, #1
  401e2e:	e7dd      	b.n	401dec <_i2c_m_sync_transfer+0x98>
  401e30:	6923      	ldr	r3, [r4, #16]
  401e32:	2202      	movs	r2, #2
  401e34:	601a      	str	r2, [r3, #0]
  401e36:	e7f9      	b.n	401e2c <_i2c_m_sync_transfer+0xd8>
  401e38:	6923      	ldr	r3, [r4, #16]
  401e3a:	6a1b      	ldr	r3, [r3, #32]
  401e3c:	f013 0f01 	tst.w	r3, #1
  401e40:	d0fa      	beq.n	401e38 <_i2c_m_sync_transfer+0xe4>
  401e42:	8863      	ldrh	r3, [r4, #2]
  401e44:	b29b      	uxth	r3, r3
  401e46:	f423 7380 	bic.w	r3, r3, #256	; 0x100
  401e4a:	b29b      	uxth	r3, r3
  401e4c:	8063      	strh	r3, [r4, #2]
  401e4e:	2000      	movs	r0, #0
  401e50:	bd38      	pop	{r3, r4, r5, pc}
  401e52:	6922      	ldr	r2, [r4, #16]
  401e54:	041b      	lsls	r3, r3, #16
  401e56:	f403 03fe 	and.w	r3, r3, #8323072	; 0x7f0000
  401e5a:	6053      	str	r3, [r2, #4]
  401e5c:	e7a6      	b.n	401dac <_i2c_m_sync_transfer+0x58>
  401e5e:	f06f 0001 	mvn.w	r0, #1
  401e62:	b978      	cbnz	r0, 401e84 <_i2c_m_sync_transfer+0x130>
  401e64:	68ab      	ldr	r3, [r5, #8]
  401e66:	5c5b      	ldrb	r3, [r3, r1]
  401e68:	6353      	str	r3, [r2, #52]	; 0x34
  401e6a:	3101      	adds	r1, #1
  401e6c:	686b      	ldr	r3, [r5, #4]
  401e6e:	4299      	cmp	r1, r3
  401e70:	d208      	bcs.n	401e84 <_i2c_m_sync_transfer+0x130>
  401e72:	6922      	ldr	r2, [r4, #16]
  401e74:	6a13      	ldr	r3, [r2, #32]
  401e76:	f413 7f80 	tst.w	r3, #256	; 0x100
  401e7a:	d1f0      	bne.n	401e5e <_i2c_m_sync_transfer+0x10a>
  401e7c:	f013 0f04 	tst.w	r3, #4
  401e80:	d0f7      	beq.n	401e72 <_i2c_m_sync_transfer+0x11e>
  401e82:	e7ee      	b.n	401e62 <_i2c_m_sync_transfer+0x10e>
  401e84:	886b      	ldrh	r3, [r5, #2]
  401e86:	f413 4f00 	tst.w	r3, #32768	; 0x8000
  401e8a:	d106      	bne.n	401e9a <_i2c_m_sync_transfer+0x146>
  401e8c:	8863      	ldrh	r3, [r4, #2]
  401e8e:	b29b      	uxth	r3, r3
  401e90:	f423 7380 	bic.w	r3, r3, #256	; 0x100
  401e94:	b29b      	uxth	r3, r3
  401e96:	8063      	strh	r3, [r4, #2]
  401e98:	bd38      	pop	{r3, r4, r5, pc}
  401e9a:	6923      	ldr	r3, [r4, #16]
  401e9c:	2202      	movs	r2, #2
  401e9e:	601a      	str	r2, [r3, #0]
  401ea0:	6923      	ldr	r3, [r4, #16]
  401ea2:	6a1b      	ldr	r3, [r3, #32]
  401ea4:	f013 0f01 	tst.w	r3, #1
  401ea8:	d0fa      	beq.n	401ea0 <_i2c_m_sync_transfer+0x14c>
  401eaa:	e7ef      	b.n	401e8c <_i2c_m_sync_transfer+0x138>
  401eac:	f06f 0005 	mvn.w	r0, #5
  401eb0:	bd38      	pop	{r3, r4, r5, pc}
  401eb2:	bf00      	nop
  401eb4:	004033c8 	.word	0x004033c8
  401eb8:	00401115 	.word	0x00401115

00401ebc <_wdt_init>:
  401ebc:	b510      	push	{r4, lr}
  401ebe:	4604      	mov	r4, r0
  401ec0:	b168      	cbz	r0, 401ede <_wdt_init+0x22>
  401ec2:	6803      	ldr	r3, [r0, #0]
  401ec4:	b14b      	cbz	r3, 401eda <_wdt_init+0x1e>
  401ec6:	2001      	movs	r0, #1
  401ec8:	2233      	movs	r2, #51	; 0x33
  401eca:	4906      	ldr	r1, [pc, #24]	; (401ee4 <_wdt_init+0x28>)
  401ecc:	4b06      	ldr	r3, [pc, #24]	; (401ee8 <_wdt_init+0x2c>)
  401ece:	4798      	blx	r3
  401ed0:	6823      	ldr	r3, [r4, #0]
  401ed2:	4a06      	ldr	r2, [pc, #24]	; (401eec <_wdt_init+0x30>)
  401ed4:	605a      	str	r2, [r3, #4]
  401ed6:	2000      	movs	r0, #0
  401ed8:	bd10      	pop	{r4, pc}
  401eda:	2000      	movs	r0, #0
  401edc:	e7f4      	b.n	401ec8 <_wdt_init+0xc>
  401ede:	2000      	movs	r0, #0
  401ee0:	e7f2      	b.n	401ec8 <_wdt_init+0xc>
  401ee2:	bf00      	nop
  401ee4:	004033e4 	.word	0x004033e4
  401ee8:	00401115 	.word	0x00401115
  401eec:	3fffafff 	.word	0x3fffafff

00401ef0 <main>:

//counter for data points
int timer_c=0;

int main(void)
{
  401ef0:	b5f0      	push	{r4, r5, r6, r7, lr}
  401ef2:	b08b      	sub	sp, #44	; 0x2c
	//set velocity trackers to 0
	memset(v_fr, 0, 1000);
  401ef4:	f44f 767a 	mov.w	r6, #1000	; 0x3e8
  401ef8:	4632      	mov	r2, r6
  401efa:	2100      	movs	r1, #0
  401efc:	4848      	ldr	r0, [pc, #288]	; (402020 <main+0x130>)
  401efe:	4d49      	ldr	r5, [pc, #292]	; (402024 <main+0x134>)
  401f00:	47a8      	blx	r5
	memset(v_fl, 0, 1000);
  401f02:	4632      	mov	r2, r6
  401f04:	2100      	movs	r1, #0
  401f06:	4848      	ldr	r0, [pc, #288]	; (402028 <main+0x138>)
  401f08:	47a8      	blx	r5
	memset(v_br, 0, 1000);
  401f0a:	4632      	mov	r2, r6
  401f0c:	2100      	movs	r1, #0
  401f0e:	4847      	ldr	r0, [pc, #284]	; (40202c <main+0x13c>)
  401f10:	47a8      	blx	r5
	memset(v_bl, 0, 1000);
  401f12:	4632      	mov	r2, r6
  401f14:	2100      	movs	r1, #0
  401f16:	4846      	ldr	r0, [pc, #280]	; (402030 <main+0x140>)
  401f18:	47a8      	blx	r5
	
	volatile float current_wheel_speed = 0.0;
  401f1a:	2700      	movs	r7, #0
  401f1c:	9709      	str	r7, [sp, #36]	; 0x24
	
	uint16_t robot_stop = 0;
  401f1e:	2400      	movs	r4, #0
  401f20:	f8ad 4022 	strh.w	r4, [sp, #34]	; 0x22
	
	atmel_start_init();
  401f24:	4b43      	ldr	r3, [pc, #268]	; (402034 <main+0x144>)
  401f26:	4798      	blx	r3
	
	//disable LEDs
	set_LEDs(0);
  401f28:	4620      	mov	r0, r4
  401f2a:	4b43      	ldr	r3, [pc, #268]	; (402038 <main+0x148>)
  401f2c:	4798      	blx	r3
	
	uint8_t robot_ID = 0;
  401f2e:	a80a      	add	r0, sp, #40	; 0x28
  401f30:	f800 4d07 	strb.w	r4, [r0, #-7]!
	uint8_t data_store[32];
	
	//initialize wireless data processing
	NPP_init(&robot_ID);
  401f34:	4b41      	ldr	r3, [pc, #260]	; (40203c <main+0x14c>)
  401f36:	4798      	blx	r3
	memset(&data_store[0], 0, sizeof(uint8_t)*32);
  401f38:	2220      	movs	r2, #32
  401f3a:	4621      	mov	r1, r4
  401f3c:	4668      	mov	r0, sp
  401f3e:	47a8      	blx	r5
	nRF24_init(data_store);
  401f40:	4668      	mov	r0, sp
  401f42:	4b3f      	ldr	r3, [pc, #252]	; (402040 <main+0x150>)
  401f44:	4798      	blx	r3
	delay_us(500); //Should be 200 us, setting higher for testing
  401f46:	f44f 70fa 	mov.w	r0, #500	; 0x1f4
  401f4a:	4b3e      	ldr	r3, [pc, #248]	; (402044 <main+0x154>)
  401f4c:	4798      	blx	r3
	nRF24_enter_receive();
  401f4e:	4b3e      	ldr	r3, [pc, #248]	; (402048 <main+0x158>)
  401f50:	4798      	blx	r3
	
	//initialize encoders
	encoders_init();
  401f52:	4b3e      	ldr	r3, [pc, #248]	; (40204c <main+0x15c>)
  401f54:	4798      	blx	r3
	
	// PWMs
	pwm_enable(&PWM_0);
  401f56:	483e      	ldr	r0, [pc, #248]	; (402050 <main+0x160>)
  401f58:	4d3e      	ldr	r5, [pc, #248]	; (402054 <main+0x164>)
  401f5a:	47a8      	blx	r5
	pwm_enable(&PWM_1);
  401f5c:	483e      	ldr	r0, [pc, #248]	; (402058 <main+0x168>)
  401f5e:	47a8      	blx	r5
	
	int pid_done = 0;
	
	//disable motors
	set_pwm_drive_motor(0, 0);
  401f60:	4621      	mov	r1, r4
  401f62:	4620      	mov	r0, r4
  401f64:	4d3d      	ldr	r5, [pc, #244]	; (40205c <main+0x16c>)
  401f66:	47a8      	blx	r5
	set_pwm_drive_motor(1, 0);
  401f68:	4621      	mov	r1, r4
  401f6a:	2001      	movs	r0, #1
  401f6c:	47a8      	blx	r5
	set_pwm_drive_motor(2, 0);
  401f6e:	4621      	mov	r1, r4
  401f70:	2002      	movs	r0, #2
  401f72:	47a8      	blx	r5
	set_pwm_drive_motor(3, 0);
  401f74:	4621      	mov	r1, r4
  401f76:	2003      	movs	r0, #3
  401f78:	47a8      	blx	r5
	set_pwm_dribbler_motor(0);
  401f7a:	4620      	mov	r0, r4
  401f7c:	4b38      	ldr	r3, [pc, #224]	; (402060 <main+0x170>)
  401f7e:	4798      	blx	r3
	float adc_value_battery_current = 0;
	float adc_value_battery_voltage = 0;
	float adc_value_cap_charge = 0;
	
	//initialize ADCs
	adc_init();
  401f80:	4b38      	ldr	r3, [pc, #224]	; (402064 <main+0x174>)
  401f82:	4798      	blx	r3
	
	//initialize timers
	initialize_task_PID();
  401f84:	4b38      	ldr	r3, [pc, #224]	; (402068 <main+0x178>)
  401f86:	4798      	blx	r3
	initialize_task_ADC();
  401f88:	4b38      	ldr	r3, [pc, #224]	; (40206c <main+0x17c>)
  401f8a:	4798      	blx	r3
	
	delay_ms(1000);
  401f8c:	4630      	mov	r0, r6
  401f8e:	4e38      	ldr	r6, [pc, #224]	; (402070 <main+0x180>)
  401f90:	47b0      	blx	r6
	
	set_pwm_drive_motor(0, PWM_ZERO);
  401f92:	f241 312c 	movw	r1, #4908	; 0x132c
  401f96:	4620      	mov	r0, r4
  401f98:	47a8      	blx	r5
	set_pwm_drive_motor(1, PWM_ZERO);
  401f9a:	f241 312c 	movw	r1, #4908	; 0x132c
  401f9e:	2001      	movs	r0, #1
  401fa0:	47a8      	blx	r5
	set_pwm_drive_motor(2, PWM_ZERO);
  401fa2:	f241 312c 	movw	r1, #4908	; 0x132c
  401fa6:	2002      	movs	r0, #2
  401fa8:	47a8      	blx	r5
	set_pwm_drive_motor(3, PWM_ZERO);
  401faa:	f241 312c 	movw	r1, #4908	; 0x132c
  401fae:	2003      	movs	r0, #3
  401fb0:	47a8      	blx	r5
	
	fr_tv = -1.0;
  401fb2:	4a30      	ldr	r2, [pc, #192]	; (402074 <main+0x184>)
  401fb4:	4b30      	ldr	r3, [pc, #192]	; (402078 <main+0x188>)
  401fb6:	601a      	str	r2, [r3, #0]
	fl_tv = 0.0;
  401fb8:	4b30      	ldr	r3, [pc, #192]	; (40207c <main+0x18c>)
  401fba:	601f      	str	r7, [r3, #0]
	bl_tv = 0.0;
  401fbc:	4b30      	ldr	r3, [pc, #192]	; (402080 <main+0x190>)
  401fbe:	601f      	str	r7, [r3, #0]
	br_tv = 0.0;
  401fc0:	4b30      	ldr	r3, [pc, #192]	; (402084 <main+0x194>)
  401fc2:	601f      	str	r7, [r3, #0]
	
	delay_ms(4000);
  401fc4:	f44f 607a 	mov.w	r0, #4000	; 0xfa0
  401fc8:	47b0      	blx	r6
  401fca:	e002      	b.n	401fd2 <main+0xe2>
			pid_done = 0;
		}
		target_speed_old = target_speed;*/
		
		//timer flag set & not at setpoints
		if(time_to_pid){// && !pid_done){
  401fcc:	4b2e      	ldr	r3, [pc, #184]	; (402088 <main+0x198>)
  401fce:	781b      	ldrb	r3, [r3, #0]
  401fd0:	b9a3      	cbnz	r3, 401ffc <main+0x10c>
		if(nRF_24_is_data_available(1)){ //check to see if data was received
  401fd2:	2001      	movs	r0, #1
  401fd4:	4b2d      	ldr	r3, [pc, #180]	; (40208c <main+0x19c>)
  401fd6:	4798      	blx	r3
  401fd8:	2800      	cmp	r0, #0
  401fda:	d0f7      	beq.n	401fcc <main+0xdc>
			nRF24_receive_data(data_store);
  401fdc:	4668      	mov	r0, sp
  401fde:	4b2c      	ldr	r3, [pc, #176]	; (402090 <main+0x1a0>)
  401fe0:	4798      	blx	r3
			NPP_process(&data_store[0], &robot_ID, &robot_stop); //process data
  401fe2:	f10d 0222 	add.w	r2, sp, #34	; 0x22
  401fe6:	f10d 0121 	add.w	r1, sp, #33	; 0x21
  401fea:	4668      	mov	r0, sp
  401fec:	4b29      	ldr	r3, [pc, #164]	; (402094 <main+0x1a4>)
  401fee:	4798      	blx	r3
			memset(&data_store[0], 0, sizeof(uint8_t)*32); //clear data_store array
  401ff0:	2220      	movs	r2, #32
  401ff2:	2100      	movs	r1, #0
  401ff4:	4668      	mov	r0, sp
  401ff6:	4b0b      	ldr	r3, [pc, #44]	; (402024 <main+0x134>)
  401ff8:	4798      	blx	r3
  401ffa:	e7e7      	b.n	401fcc <main+0xdc>
			//pid
			wheelMotorPID(fr_tv, fl_tv, bl_tv, br_tv);
  401ffc:	4b21      	ldr	r3, [pc, #132]	; (402084 <main+0x194>)
  401ffe:	681b      	ldr	r3, [r3, #0]
  402000:	4a1f      	ldr	r2, [pc, #124]	; (402080 <main+0x190>)
  402002:	6812      	ldr	r2, [r2, #0]
  402004:	491d      	ldr	r1, [pc, #116]	; (40207c <main+0x18c>)
  402006:	6809      	ldr	r1, [r1, #0]
  402008:	481b      	ldr	r0, [pc, #108]	; (402078 <main+0x188>)
  40200a:	6800      	ldr	r0, [r0, #0]
  40200c:	4c22      	ldr	r4, [pc, #136]	; (402098 <main+0x1a8>)
  40200e:	47a0      	blx	r4
			//set_pwm_dribbler_motor(100);
			time_to_pid = 0;
  402010:	2200      	movs	r2, #0
  402012:	4b1d      	ldr	r3, [pc, #116]	; (402088 <main+0x198>)
  402014:	701a      	strb	r2, [r3, #0]
			timer_c++;
  402016:	4a21      	ldr	r2, [pc, #132]	; (40209c <main+0x1ac>)
  402018:	6813      	ldr	r3, [r2, #0]
  40201a:	3301      	adds	r3, #1
  40201c:	6013      	str	r3, [r2, #0]
  40201e:	e7d8      	b.n	401fd2 <main+0xe2>
  402020:	20402138 	.word	0x20402138
  402024:	004030d9 	.word	0x004030d9
  402028:	204001f4 	.word	0x204001f4
  40202c:	2040407c 	.word	0x2040407c
  402030:	20401198 	.word	0x20401198
  402034:	004001e9 	.word	0x004001e9
  402038:	004002d9 	.word	0x004002d9
  40203c:	0040241d 	.word	0x0040241d
  402040:	0040262d 	.word	0x0040262d
  402044:	00400aa5 	.word	0x00400aa5
  402048:	00402709 	.word	0x00402709
  40204c:	004009e5 	.word	0x004009e5
  402050:	2040012c 	.word	0x2040012c
  402054:	00400d85 	.word	0x00400d85
  402058:	20400184 	.word	0x20400184
  40205c:	00402779 	.word	0x00402779
  402060:	004027c1 	.word	0x004027c1
  402064:	004001c5 	.word	0x004001c5
  402068:	004027f1 	.word	0x004027f1
  40206c:	00402825 	.word	0x00402825
  402070:	00400ac5 	.word	0x00400ac5
  402074:	bf800000 	.word	0xbf800000
  402078:	204001dc 	.word	0x204001dc
  40207c:	20404078 	.word	0x20404078
  402080:	20405fbc 	.word	0x20405fbc
  402084:	20401194 	.word	0x20401194
  402088:	20400128 	.word	0x20400128
  40208c:	004026e1 	.word	0x004026e1
  402090:	004025ad 	.word	0x004025ad
  402094:	00402459 	.word	0x00402459
  402098:	00402299 	.word	0x00402299
  40209c:	204000f0 	.word	0x204000f0

004020a0 <wheel_speed_front_right>:
	prev_error_back_left=0;
	prev_error_back_right=0;
}

//hardcoded wheel speed calculations
float wheel_speed_front_right(){
  4020a0:	b5f8      	push	{r3, r4, r5, r6, r7, lr}
	float current_speed;
	current_speed = (float)(front_right_counter - front_right_counter_old)*v_c_l; //rad/s or m/s
  4020a2:	4b0c      	ldr	r3, [pc, #48]	; (4020d4 <wheel_speed_front_right+0x34>)
  4020a4:	e9d3 6700 	ldrd	r6, r7, [r3]
  4020a8:	4c0b      	ldr	r4, [pc, #44]	; (4020d8 <wheel_speed_front_right+0x38>)
  4020aa:	e9d4 2304 	ldrd	r2, r3, [r4, #16]
  4020ae:	4630      	mov	r0, r6
  4020b0:	4639      	mov	r1, r7
  4020b2:	4d0a      	ldr	r5, [pc, #40]	; (4020dc <wheel_speed_front_right+0x3c>)
  4020b4:	47a8      	blx	r5
  4020b6:	4b0a      	ldr	r3, [pc, #40]	; (4020e0 <wheel_speed_front_right+0x40>)
  4020b8:	4798      	blx	r3
  4020ba:	4b0a      	ldr	r3, [pc, #40]	; (4020e4 <wheel_speed_front_right+0x44>)
  4020bc:	edd3 7a00 	vldr	s15, [r3]
	//set encoder previous encoder count
	front_right_counter_old = front_right_counter;
  4020c0:	e9c4 6704 	strd	r6, r7, [r4, #16]
	return current_speed;
}
  4020c4:	ee07 0a10 	vmov	s14, r0
  4020c8:	ee67 7a27 	vmul.f32	s15, s14, s15
  4020cc:	ee17 0a90 	vmov	r0, s15
  4020d0:	bdf8      	pop	{r3, r4, r5, r6, r7, pc}
  4020d2:	bf00      	nop
  4020d4:	20400078 	.word	0x20400078
  4020d8:	204000f8 	.word	0x204000f8
  4020dc:	00402865 	.word	0x00402865
  4020e0:	00402ff1 	.word	0x00402ff1
  4020e4:	20400048 	.word	0x20400048

004020e8 <wheel_speed_front_left>:

float wheel_speed_front_left(){
  4020e8:	b5f8      	push	{r3, r4, r5, r6, r7, lr}
	float current_speed;
	current_speed = (float)(front_left_counter - front_left_counter_old)*v_c_l; //rad/s or m/s
  4020ea:	4b0c      	ldr	r3, [pc, #48]	; (40211c <wheel_speed_front_left+0x34>)
  4020ec:	e9d3 6700 	ldrd	r6, r7, [r3]
  4020f0:	4c0b      	ldr	r4, [pc, #44]	; (402120 <wheel_speed_front_left+0x38>)
  4020f2:	e9d4 2306 	ldrd	r2, r3, [r4, #24]
  4020f6:	4630      	mov	r0, r6
  4020f8:	4639      	mov	r1, r7
  4020fa:	4d0a      	ldr	r5, [pc, #40]	; (402124 <wheel_speed_front_left+0x3c>)
  4020fc:	47a8      	blx	r5
  4020fe:	4b0a      	ldr	r3, [pc, #40]	; (402128 <wheel_speed_front_left+0x40>)
  402100:	4798      	blx	r3
  402102:	4b0a      	ldr	r3, [pc, #40]	; (40212c <wheel_speed_front_left+0x44>)
  402104:	edd3 7a00 	vldr	s15, [r3]
	//set encoder previous encoder count
	front_left_counter_old = front_left_counter;
  402108:	e9c4 6706 	strd	r6, r7, [r4, #24]
	return current_speed;
	//return v_c_r;
}
  40210c:	ee07 0a10 	vmov	s14, r0
  402110:	ee67 7a27 	vmul.f32	s15, s14, s15
  402114:	ee17 0a90 	vmov	r0, s15
  402118:	bdf8      	pop	{r3, r4, r5, r6, r7, pc}
  40211a:	bf00      	nop
  40211c:	20400070 	.word	0x20400070
  402120:	204000f8 	.word	0x204000f8
  402124:	00402865 	.word	0x00402865
  402128:	00402ff1 	.word	0x00402ff1
  40212c:	20400048 	.word	0x20400048

00402130 <wheel_speed_back_left>:

float wheel_speed_back_left(){
  402130:	b5f8      	push	{r3, r4, r5, r6, r7, lr}
	float current_speed;
	current_speed = (float)(back_left_counter - back_left_counter_old)*v_c_l; //rad/s or m/s
  402132:	4b0c      	ldr	r3, [pc, #48]	; (402164 <wheel_speed_back_left+0x34>)
  402134:	e9d3 6700 	ldrd	r6, r7, [r3]
  402138:	4c0b      	ldr	r4, [pc, #44]	; (402168 <wheel_speed_back_left+0x38>)
  40213a:	e9d4 2308 	ldrd	r2, r3, [r4, #32]
  40213e:	4630      	mov	r0, r6
  402140:	4639      	mov	r1, r7
  402142:	4d0a      	ldr	r5, [pc, #40]	; (40216c <wheel_speed_back_left+0x3c>)
  402144:	47a8      	blx	r5
  402146:	4b0a      	ldr	r3, [pc, #40]	; (402170 <wheel_speed_back_left+0x40>)
  402148:	4798      	blx	r3
  40214a:	4b0a      	ldr	r3, [pc, #40]	; (402174 <wheel_speed_back_left+0x44>)
  40214c:	edd3 7a00 	vldr	s15, [r3]
	//set encoder previous encoder count
	back_left_counter_old = back_left_counter;
  402150:	e9c4 6708 	strd	r6, r7, [r4, #32]
	return current_speed;
}
  402154:	ee07 0a10 	vmov	s14, r0
  402158:	ee67 7a27 	vmul.f32	s15, s14, s15
  40215c:	ee17 0a90 	vmov	r0, s15
  402160:	bdf8      	pop	{r3, r4, r5, r6, r7, pc}
  402162:	bf00      	nop
  402164:	20400080 	.word	0x20400080
  402168:	204000f8 	.word	0x204000f8
  40216c:	00402865 	.word	0x00402865
  402170:	00402ff1 	.word	0x00402ff1
  402174:	20400048 	.word	0x20400048

00402178 <wheel_speed_back_right>:

float wheel_speed_back_right(){
  402178:	b5f8      	push	{r3, r4, r5, r6, r7, lr}
	float current_speed;
	current_speed = (float)(back_right_counter - back_right_counter_old)*v_c_l; //rad/s or m/s
  40217a:	4b0c      	ldr	r3, [pc, #48]	; (4021ac <wheel_speed_back_right+0x34>)
  40217c:	e9d3 6700 	ldrd	r6, r7, [r3]
  402180:	4c0b      	ldr	r4, [pc, #44]	; (4021b0 <wheel_speed_back_right+0x38>)
  402182:	e9d4 230a 	ldrd	r2, r3, [r4, #40]	; 0x28
  402186:	4630      	mov	r0, r6
  402188:	4639      	mov	r1, r7
  40218a:	4d0a      	ldr	r5, [pc, #40]	; (4021b4 <wheel_speed_back_right+0x3c>)
  40218c:	47a8      	blx	r5
  40218e:	4b0a      	ldr	r3, [pc, #40]	; (4021b8 <wheel_speed_back_right+0x40>)
  402190:	4798      	blx	r3
  402192:	4b0a      	ldr	r3, [pc, #40]	; (4021bc <wheel_speed_back_right+0x44>)
  402194:	edd3 7a00 	vldr	s15, [r3]
	//set encoder previous encoder count
	back_right_counter_old = back_right_counter;
  402198:	e9c4 670a 	strd	r6, r7, [r4, #40]	; 0x28
	return current_speed;
}
  40219c:	ee07 0a10 	vmov	s14, r0
  4021a0:	ee67 7a27 	vmul.f32	s15, s14, s15
  4021a4:	ee17 0a90 	vmov	r0, s15
  4021a8:	bdf8      	pop	{r3, r4, r5, r6, r7, pc}
  4021aa:	bf00      	nop
  4021ac:	20400088 	.word	0x20400088
  4021b0:	204000f8 	.word	0x204000f8
  4021b4:	00402865 	.word	0x00402865
  4021b8:	00402ff1 	.word	0x00402ff1
  4021bc:	20400048 	.word	0x20400048

004021c0 <convert_linear_to_pwm>:

//converts linear velocity to the range of pwm for error signal
float convert_linear_to_pwm(int flip, float error){
  4021c0:	b510      	push	{r4, lr}
  4021c2:	b082      	sub	sp, #8
	volatile float correction;
	if(flip){
  4021c4:	b9a0      	cbnz	r0, 4021f0 <convert_linear_to_pwm+0x30>
		correction = PWM_ZERO - error*KP_M - DEADBAND;
	}
	else{correction = error*KP_M + PWM_ZERO + DEADBAND;}
  4021c6:	4608      	mov	r0, r1
  4021c8:	4b17      	ldr	r3, [pc, #92]	; (402228 <convert_linear_to_pwm+0x68>)
  4021ca:	4798      	blx	r3
  4021cc:	2200      	movs	r2, #0
  4021ce:	4b17      	ldr	r3, [pc, #92]	; (40222c <convert_linear_to_pwm+0x6c>)
  4021d0:	4c17      	ldr	r4, [pc, #92]	; (402230 <convert_linear_to_pwm+0x70>)
  4021d2:	47a0      	blx	r4
  4021d4:	4c17      	ldr	r4, [pc, #92]	; (402234 <convert_linear_to_pwm+0x74>)
  4021d6:	a312      	add	r3, pc, #72	; (adr r3, 402220 <convert_linear_to_pwm+0x60>)
  4021d8:	e9d3 2300 	ldrd	r2, r3, [r3]
  4021dc:	47a0      	blx	r4
  4021de:	2200      	movs	r2, #0
  4021e0:	4b15      	ldr	r3, [pc, #84]	; (402238 <convert_linear_to_pwm+0x78>)
  4021e2:	47a0      	blx	r4
  4021e4:	4b15      	ldr	r3, [pc, #84]	; (40223c <convert_linear_to_pwm+0x7c>)
  4021e6:	4798      	blx	r3
  4021e8:	9001      	str	r0, [sp, #4]
	
	return correction;
  4021ea:	9801      	ldr	r0, [sp, #4]
}
  4021ec:	b002      	add	sp, #8
  4021ee:	bd10      	pop	{r4, pc}
		correction = PWM_ZERO - error*KP_M - DEADBAND;
  4021f0:	4608      	mov	r0, r1
  4021f2:	4b0d      	ldr	r3, [pc, #52]	; (402228 <convert_linear_to_pwm+0x68>)
  4021f4:	4798      	blx	r3
  4021f6:	2200      	movs	r2, #0
  4021f8:	4b0c      	ldr	r3, [pc, #48]	; (40222c <convert_linear_to_pwm+0x6c>)
  4021fa:	4c0d      	ldr	r4, [pc, #52]	; (402230 <convert_linear_to_pwm+0x70>)
  4021fc:	47a0      	blx	r4
  4021fe:	4c10      	ldr	r4, [pc, #64]	; (402240 <convert_linear_to_pwm+0x80>)
  402200:	4602      	mov	r2, r0
  402202:	460b      	mov	r3, r1
  402204:	a106      	add	r1, pc, #24	; (adr r1, 402220 <convert_linear_to_pwm+0x60>)
  402206:	e9d1 0100 	ldrd	r0, r1, [r1]
  40220a:	47a0      	blx	r4
  40220c:	2200      	movs	r2, #0
  40220e:	4b0a      	ldr	r3, [pc, #40]	; (402238 <convert_linear_to_pwm+0x78>)
  402210:	47a0      	blx	r4
  402212:	4b0a      	ldr	r3, [pc, #40]	; (40223c <convert_linear_to_pwm+0x7c>)
  402214:	4798      	blx	r3
  402216:	9001      	str	r0, [sp, #4]
  402218:	e7e7      	b.n	4021ea <convert_linear_to_pwm+0x2a>
  40221a:	bf00      	nop
  40221c:	f3af 8000 	nop.w
  402220:	00000000 	.word	0x00000000
  402224:	40b32c00 	.word	0x40b32c00
  402228:	00402b25 	.word	0x00402b25
  40222c:	403b4000 	.word	0x403b4000
  402230:	00402bcd 	.word	0x00402bcd
  402234:	00402869 	.word	0x00402869
  402238:	404b0000 	.word	0x404b0000
  40223c:	00402ff1 	.word	0x00402ff1
  402240:	00402865 	.word	0x00402865

00402244 <setWheelMotorEffort>:

}

//handles magnitude and direction of motor
//FIGURE OUT CCW vs CW HIGH/LOW for motor controller
void setWheelMotorEffort(float effort_front_right, float effort_front_left, float effort_back_left, float effort_back_right){
  402244:	b510      	push	{r4, lr}
  402246:	ed2d 8b04 	vpush	{d8-d9}
  40224a:	ee08 0a10 	vmov	s16, r0
  40224e:	ee09 2a10 	vmov	s18, r2
  402252:	ee08 3a90 	vmov	s17, r3
	//set PWM duty cycle
	set_pwm_drive_motor(0, effort_front_left);
  402256:	ee07 1a90 	vmov	s15, r1
  40225a:	eefc 7ae7 	vcvt.u32.f32	s15, s15
  40225e:	ee17 1a90 	vmov	r1, s15
  402262:	2000      	movs	r0, #0
  402264:	4c0b      	ldr	r4, [pc, #44]	; (402294 <setWheelMotorEffort+0x50>)
  402266:	47a0      	blx	r4
	set_pwm_drive_motor(1, effort_back_left);
  402268:	eefc 7ac9 	vcvt.u32.f32	s15, s18
  40226c:	ee17 1a90 	vmov	r1, s15
  402270:	2001      	movs	r0, #1
  402272:	47a0      	blx	r4
	set_pwm_drive_motor(2, effort_back_right);
  402274:	eefc 7ae8 	vcvt.u32.f32	s15, s17
  402278:	ee17 1a90 	vmov	r1, s15
  40227c:	2002      	movs	r0, #2
  40227e:	47a0      	blx	r4
	set_pwm_drive_motor(3, effort_front_right);
  402280:	eefc 7ac8 	vcvt.u32.f32	s15, s16
  402284:	ee17 1a90 	vmov	r1, s15
  402288:	2003      	movs	r0, #3
  40228a:	47a0      	blx	r4
}
  40228c:	ecbd 8b04 	vpop	{d8-d9}
  402290:	bd10      	pop	{r4, pc}
  402292:	bf00      	nop
  402294:	00402779 	.word	0x00402779

00402298 <wheelMotorPID>:
int wheelMotorPID(float target_fr, float target_fl, float target_bl, float target_br){
  402298:	b510      	push	{r4, lr}
  40229a:	ed2d 8b04 	vpush	{d8-d9}
  40229e:	b088      	sub	sp, #32
  4022a0:	ee09 0a10 	vmov	s18, r0
  4022a4:	ee08 1a90 	vmov	s17, r1
  4022a8:	ee09 2a90 	vmov	s19, r2
  4022ac:	ee08 3a10 	vmov	s16, r3
	volatile float fl_vel = wheel_speed_front_left();
  4022b0:	4b4c      	ldr	r3, [pc, #304]	; (4023e4 <wheelMotorPID+0x14c>)
  4022b2:	4798      	blx	r3
  4022b4:	9007      	str	r0, [sp, #28]
	volatile float fr_vel = wheel_speed_front_right();
  4022b6:	4b4c      	ldr	r3, [pc, #304]	; (4023e8 <wheelMotorPID+0x150>)
  4022b8:	4798      	blx	r3
  4022ba:	9006      	str	r0, [sp, #24]
	volatile float bl_vel = wheel_speed_back_left();
  4022bc:	4b4b      	ldr	r3, [pc, #300]	; (4023ec <wheelMotorPID+0x154>)
  4022be:	4798      	blx	r3
  4022c0:	9005      	str	r0, [sp, #20]
	volatile float br_vel = wheel_speed_back_right();
  4022c2:	4b4b      	ldr	r3, [pc, #300]	; (4023f0 <wheelMotorPID+0x158>)
  4022c4:	4798      	blx	r3
  4022c6:	9004      	str	r0, [sp, #16]
	volatile float error_front_right = target_fr - fr_vel;
  4022c8:	eddd 7a06 	vldr	s15, [sp, #24]
  4022cc:	ee79 7a67 	vsub.f32	s15, s18, s15
  4022d0:	edcd 7a03 	vstr	s15, [sp, #12]
	volatile float error_front_left = target_fl - fl_vel;
  4022d4:	eddd 7a07 	vldr	s15, [sp, #28]
  4022d8:	ee78 7ae7 	vsub.f32	s15, s17, s15
  4022dc:	edcd 7a02 	vstr	s15, [sp, #8]
	volatile float error_back_left = target_bl - bl_vel;
  4022e0:	eddd 7a05 	vldr	s15, [sp, #20]
  4022e4:	ee79 9ae7 	vsub.f32	s19, s19, s15
  4022e8:	edcd 9a01 	vstr	s19, [sp, #4]
	volatile float error_back_right = target_br - br_vel;
  4022ec:	eddd 7a04 	vldr	s15, [sp, #16]
  4022f0:	ee38 8a67 	vsub.f32	s16, s16, s15
  4022f4:	ed8d 8a00 	vstr	s16, [sp]
	error_sum_front_right += error_front_right;
  4022f8:	ed9d 7a03 	vldr	s14, [sp, #12]
  4022fc:	4b3d      	ldr	r3, [pc, #244]	; (4023f4 <wheelMotorPID+0x15c>)
  4022fe:	edd3 7a01 	vldr	s15, [r3, #4]
  402302:	ee77 7a87 	vadd.f32	s15, s15, s14
  402306:	edc3 7a01 	vstr	s15, [r3, #4]
	error_sum_front_left += error_front_left;
  40230a:	ed9d 7a02 	vldr	s14, [sp, #8]
  40230e:	edd3 7a00 	vldr	s15, [r3]
  402312:	ee77 7a87 	vadd.f32	s15, s15, s14
  402316:	edc3 7a00 	vstr	s15, [r3]
	error_sum_back_left += error_back_left;
  40231a:	ed9d 7a01 	vldr	s14, [sp, #4]
  40231e:	edd3 7a02 	vldr	s15, [r3, #8]
  402322:	ee77 7a87 	vadd.f32	s15, s15, s14
  402326:	edc3 7a02 	vstr	s15, [r3, #8]
	error_sum_back_right += error_back_right;
  40232a:	ed9d 7a00 	vldr	s14, [sp]
  40232e:	edd3 7a03 	vldr	s15, [r3, #12]
  402332:	ee77 7a87 	vadd.f32	s15, s15, s14
  402336:	edc3 7a03 	vstr	s15, [r3, #12]
	error_front_right = convert_linear_to_pwm(0, error_front_right);
  40233a:	9903      	ldr	r1, [sp, #12]
  40233c:	2000      	movs	r0, #0
  40233e:	4c2e      	ldr	r4, [pc, #184]	; (4023f8 <wheelMotorPID+0x160>)
  402340:	47a0      	blx	r4
  402342:	9003      	str	r0, [sp, #12]
	error_front_left = convert_linear_to_pwm(1, error_front_left);
  402344:	9902      	ldr	r1, [sp, #8]
  402346:	2001      	movs	r0, #1
  402348:	47a0      	blx	r4
  40234a:	9002      	str	r0, [sp, #8]
	error_back_right = convert_linear_to_pwm(1, error_back_right);
  40234c:	9900      	ldr	r1, [sp, #0]
  40234e:	2001      	movs	r0, #1
  402350:	47a0      	blx	r4
  402352:	9000      	str	r0, [sp, #0]
	error_back_left = convert_linear_to_pwm(1, error_back_left);
  402354:	9901      	ldr	r1, [sp, #4]
  402356:	2001      	movs	r0, #1
  402358:	47a0      	blx	r4
  40235a:	9001      	str	r0, [sp, #4]
	if(v_counter <= 1000){
  40235c:	4b27      	ldr	r3, [pc, #156]	; (4023fc <wheelMotorPID+0x164>)
  40235e:	681b      	ldr	r3, [r3, #0]
  402360:	f5b3 7f7a 	cmp.w	r3, #1000	; 0x3e8
  402364:	dc13      	bgt.n	40238e <wheelMotorPID+0xf6>
		v_fr[v_counter] = fr_vel;
  402366:	9806      	ldr	r0, [sp, #24]
  402368:	009a      	lsls	r2, r3, #2
  40236a:	4925      	ldr	r1, [pc, #148]	; (402400 <wheelMotorPID+0x168>)
  40236c:	4411      	add	r1, r2
  40236e:	6008      	str	r0, [r1, #0]
		v_fl[v_counter] = fl_vel;
  402370:	9807      	ldr	r0, [sp, #28]
  402372:	4924      	ldr	r1, [pc, #144]	; (402404 <wheelMotorPID+0x16c>)
  402374:	4411      	add	r1, r2
  402376:	6008      	str	r0, [r1, #0]
		v_br[v_counter] = br_vel;
  402378:	9804      	ldr	r0, [sp, #16]
  40237a:	4923      	ldr	r1, [pc, #140]	; (402408 <wheelMotorPID+0x170>)
  40237c:	4411      	add	r1, r2
  40237e:	6008      	str	r0, [r1, #0]
		v_bl[v_counter] = bl_vel;
  402380:	9805      	ldr	r0, [sp, #20]
  402382:	4922      	ldr	r1, [pc, #136]	; (40240c <wheelMotorPID+0x174>)
  402384:	440a      	add	r2, r1
  402386:	6010      	str	r0, [r2, #0]
		v_counter++;
  402388:	3301      	adds	r3, #1
  40238a:	4a1c      	ldr	r2, [pc, #112]	; (4023fc <wheelMotorPID+0x164>)
  40238c:	6013      	str	r3, [r2, #0]
	float effort_front_right = KP * error_front_right + KI * error_sum_front_right;
  40238e:	ed9d 7a03 	vldr	s14, [sp, #12]
  402392:	4b18      	ldr	r3, [pc, #96]	; (4023f4 <wheelMotorPID+0x15c>)
  402394:	edd3 7a01 	vldr	s15, [r3, #4]
  402398:	ee37 7a27 	vadd.f32	s14, s14, s15
	float effort_front_left = KP * error_front_left - KI * error_sum_front_left;
  40239c:	eddd 7a02 	vldr	s15, [sp, #8]
  4023a0:	edd3 6a00 	vldr	s13, [r3]
  4023a4:	ee77 7ae6 	vsub.f32	s15, s15, s13
	float effort_back_left = KP * error_back_left - KI * error_sum_back_left;
  4023a8:	9b01      	ldr	r3, [sp, #4]
	float effort_back_right = KP * error_back_right - KI * error_sum_back_right;
  4023aa:	9b00      	ldr	r3, [sp, #0]
	if(target_fr == 0){
  4023ac:	eeb5 9a40 	vcmp.f32	s18, #0.0
  4023b0:	eef1 fa10 	vmrs	APSR_nzcv, fpscr
  4023b4:	d101      	bne.n	4023ba <wheelMotorPID+0x122>
		effort_front_right = PWM_ZERO;
  4023b6:	ed9f 7a16 	vldr	s14, [pc, #88]	; 402410 <wheelMotorPID+0x178>
	if(target_fl == 0){
  4023ba:	eef5 8a40 	vcmp.f32	s17, #0.0
  4023be:	eef1 fa10 	vmrs	APSR_nzcv, fpscr
  4023c2:	d101      	bne.n	4023c8 <wheelMotorPID+0x130>
		effort_front_left = PWM_ZERO;
  4023c4:	eddf 7a12 	vldr	s15, [pc, #72]	; 402410 <wheelMotorPID+0x178>
	setWheelMotorEffort(effort_front_right, effort_front_left, PWM_ZERO, PWM_ZERO);
  4023c8:	4a12      	ldr	r2, [pc, #72]	; (402414 <wheelMotorPID+0x17c>)
  4023ca:	4613      	mov	r3, r2
  4023cc:	ee17 1a90 	vmov	r1, s15
  4023d0:	ee17 0a10 	vmov	r0, s14
  4023d4:	4c10      	ldr	r4, [pc, #64]	; (402418 <wheelMotorPID+0x180>)
  4023d6:	47a0      	blx	r4
}
  4023d8:	2000      	movs	r0, #0
  4023da:	b008      	add	sp, #32
  4023dc:	ecbd 8b04 	vpop	{d8-d9}
  4023e0:	bd10      	pop	{r4, pc}
  4023e2:	bf00      	nop
  4023e4:	004020e9 	.word	0x004020e9
  4023e8:	004020a1 	.word	0x004020a1
  4023ec:	00402131 	.word	0x00402131
  4023f0:	00402179 	.word	0x00402179
  4023f4:	204000f8 	.word	0x204000f8
  4023f8:	004021c1 	.word	0x004021c1
  4023fc:	204000f4 	.word	0x204000f4
  402400:	20402138 	.word	0x20402138
  402404:	204001f4 	.word	0x204001f4
  402408:	2040407c 	.word	0x2040407c
  40240c:	20401198 	.word	0x20401198
  402410:	45996000 	.word	0x45996000
  402414:	45996000 	.word	0x45996000
  402418:	00402245 	.word	0x00402245

0040241c <NPP_init>:
  40241c:	b510      	push	{r4, lr}
  40241e:	4604      	mov	r4, r0
  402420:	4b02      	ldr	r3, [pc, #8]	; (40242c <NPP_init+0x10>)
  402422:	4798      	blx	r3
  402424:	f000 000f 	and.w	r0, r0, #15
  402428:	7020      	strb	r0, [r4, #0]
  40242a:	bd10      	pop	{r4, pc}
  40242c:	00400261 	.word	0x00400261

00402430 <two_byte_to_float>:
  402430:	5c8b      	ldrb	r3, [r1, r2]
  402432:	4411      	add	r1, r2
  402434:	784a      	ldrb	r2, [r1, #1]
  402436:	eb03 2302 	add.w	r3, r3, r2, lsl #8
  40243a:	b21b      	sxth	r3, r3
  40243c:	ee07 3a90 	vmov	s15, r3
  402440:	eef8 7ae7 	vcvt.f32.s32	s15, s15
  402444:	eddf 6a03 	vldr	s13, [pc, #12]	; 402454 <two_byte_to_float+0x24>
  402448:	ee87 7aa6 	vdiv.f32	s14, s15, s13
  40244c:	ed80 7a00 	vstr	s14, [r0]
  402450:	4770      	bx	lr
  402452:	bf00      	nop
  402454:	447a0000 	.word	0x447a0000

00402458 <NPP_process>:
  402458:	b538      	push	{r3, r4, r5, lr}
  40245a:	7803      	ldrb	r3, [r0, #0]
  40245c:	780c      	ldrb	r4, [r1, #0]
  40245e:	f003 010f 	and.w	r1, r3, #15
  402462:	428c      	cmp	r4, r1
  402464:	d000      	beq.n	402468 <NPP_process+0x10>
  402466:	bd38      	pop	{r3, r4, r5, pc}
  402468:	4604      	mov	r4, r0
  40246a:	091b      	lsrs	r3, r3, #4
  40246c:	8013      	strh	r3, [r2, #0]
  40246e:	2201      	movs	r2, #1
  402470:	4601      	mov	r1, r0
  402472:	480d      	ldr	r0, [pc, #52]	; (4024a8 <NPP_process+0x50>)
  402474:	4d0d      	ldr	r5, [pc, #52]	; (4024ac <NPP_process+0x54>)
  402476:	47a8      	blx	r5
  402478:	2203      	movs	r2, #3
  40247a:	4621      	mov	r1, r4
  40247c:	480c      	ldr	r0, [pc, #48]	; (4024b0 <NPP_process+0x58>)
  40247e:	47a8      	blx	r5
  402480:	2205      	movs	r2, #5
  402482:	4621      	mov	r1, r4
  402484:	480b      	ldr	r0, [pc, #44]	; (4024b4 <NPP_process+0x5c>)
  402486:	47a8      	blx	r5
  402488:	2207      	movs	r2, #7
  40248a:	4621      	mov	r1, r4
  40248c:	480a      	ldr	r0, [pc, #40]	; (4024b8 <NPP_process+0x60>)
  40248e:	47a8      	blx	r5
  402490:	2209      	movs	r2, #9
  402492:	4621      	mov	r1, r4
  402494:	4809      	ldr	r0, [pc, #36]	; (4024bc <NPP_process+0x64>)
  402496:	47a8      	blx	r5
  402498:	7ae2      	ldrb	r2, [r4, #11]
  40249a:	4b09      	ldr	r3, [pc, #36]	; (4024c0 <NPP_process+0x68>)
  40249c:	701a      	strb	r2, [r3, #0]
  40249e:	7b22      	ldrb	r2, [r4, #12]
  4024a0:	4b08      	ldr	r3, [pc, #32]	; (4024c4 <NPP_process+0x6c>)
  4024a2:	701a      	strb	r2, [r3, #0]
  4024a4:	e7df      	b.n	402466 <NPP_process+0xe>
  4024a6:	bf00      	nop
  4024a8:	20405fe0 	.word	0x20405fe0
  4024ac:	00402431 	.word	0x00402431
  4024b0:	20405fd4 	.word	0x20405fd4
  4024b4:	20405fe8 	.word	0x20405fe8
  4024b8:	20405fdc 	.word	0x20405fdc
  4024bc:	20405fd8 	.word	0x20405fd8
  4024c0:	20405fe4 	.word	0x20405fe4
  4024c4:	20405fec 	.word	0x20405fec

004024c8 <nRF24_write_to_register>:
  4024c8:	b530      	push	{r4, r5, lr}
  4024ca:	b083      	sub	sp, #12
  4024cc:	f040 0020 	orr.w	r0, r0, #32
  4024d0:	f88d 0004 	strb.w	r0, [sp, #4]
  4024d4:	f88d 1005 	strb.w	r1, [sp, #5]
  4024d8:	4c05      	ldr	r4, [pc, #20]	; (4024f0 <nRF24_write_to_register+0x28>)
  4024da:	2508      	movs	r5, #8
  4024dc:	6365      	str	r5, [r4, #52]	; 0x34
  4024de:	2202      	movs	r2, #2
  4024e0:	a901      	add	r1, sp, #4
  4024e2:	4b04      	ldr	r3, [pc, #16]	; (4024f4 <nRF24_write_to_register+0x2c>)
  4024e4:	6818      	ldr	r0, [r3, #0]
  4024e6:	4b04      	ldr	r3, [pc, #16]	; (4024f8 <nRF24_write_to_register+0x30>)
  4024e8:	4798      	blx	r3
  4024ea:	6325      	str	r5, [r4, #48]	; 0x30
  4024ec:	b003      	add	sp, #12
  4024ee:	bd30      	pop	{r4, r5, pc}
  4024f0:	400e1000 	.word	0x400e1000
  4024f4:	20405ff4 	.word	0x20405ff4
  4024f8:	00400ccd 	.word	0x00400ccd

004024fc <nRF24_write_to_register_multi_byte>:
  4024fc:	e92d 43f0 	stmdb	sp!, {r4, r5, r6, r7, r8, r9, lr}
  402500:	b083      	sub	sp, #12
  402502:	4688      	mov	r8, r1
  402504:	4691      	mov	r9, r2
  402506:	f040 0020 	orr.w	r0, r0, #32
  40250a:	a902      	add	r1, sp, #8
  40250c:	f801 0d01 	strb.w	r0, [r1, #-1]!
  402510:	4c08      	ldr	r4, [pc, #32]	; (402534 <nRF24_write_to_register_multi_byte+0x38>)
  402512:	2508      	movs	r5, #8
  402514:	6365      	str	r5, [r4, #52]	; 0x34
  402516:	4f08      	ldr	r7, [pc, #32]	; (402538 <nRF24_write_to_register_multi_byte+0x3c>)
  402518:	2201      	movs	r2, #1
  40251a:	6838      	ldr	r0, [r7, #0]
  40251c:	4e07      	ldr	r6, [pc, #28]	; (40253c <nRF24_write_to_register_multi_byte+0x40>)
  40251e:	47b0      	blx	r6
  402520:	fa1f f289 	uxth.w	r2, r9
  402524:	4641      	mov	r1, r8
  402526:	6838      	ldr	r0, [r7, #0]
  402528:	47b0      	blx	r6
  40252a:	6325      	str	r5, [r4, #48]	; 0x30
  40252c:	b003      	add	sp, #12
  40252e:	e8bd 83f0 	ldmia.w	sp!, {r4, r5, r6, r7, r8, r9, pc}
  402532:	bf00      	nop
  402534:	400e1000 	.word	0x400e1000
  402538:	20405ff4 	.word	0x20405ff4
  40253c:	00400ccd 	.word	0x00400ccd

00402540 <nRF24_read_from_register>:
  402540:	b570      	push	{r4, r5, r6, lr}
  402542:	b082      	sub	sp, #8
  402544:	a902      	add	r1, sp, #8
  402546:	f801 0d02 	strb.w	r0, [r1, #-2]!
  40254a:	4c09      	ldr	r4, [pc, #36]	; (402570 <nRF24_read_from_register+0x30>)
  40254c:	2508      	movs	r5, #8
  40254e:	6365      	str	r5, [r4, #52]	; 0x34
  402550:	4e08      	ldr	r6, [pc, #32]	; (402574 <nRF24_read_from_register+0x34>)
  402552:	2201      	movs	r2, #1
  402554:	6830      	ldr	r0, [r6, #0]
  402556:	4b08      	ldr	r3, [pc, #32]	; (402578 <nRF24_read_from_register+0x38>)
  402558:	4798      	blx	r3
  40255a:	2201      	movs	r2, #1
  40255c:	f10d 0107 	add.w	r1, sp, #7
  402560:	6830      	ldr	r0, [r6, #0]
  402562:	4b06      	ldr	r3, [pc, #24]	; (40257c <nRF24_read_from_register+0x3c>)
  402564:	4798      	blx	r3
  402566:	6325      	str	r5, [r4, #48]	; 0x30
  402568:	f89d 0007 	ldrb.w	r0, [sp, #7]
  40256c:	b002      	add	sp, #8
  40256e:	bd70      	pop	{r4, r5, r6, pc}
  402570:	400e1000 	.word	0x400e1000
  402574:	20405ff4 	.word	0x20405ff4
  402578:	00400ccd 	.word	0x00400ccd
  40257c:	00400cfd 	.word	0x00400cfd

00402580 <nRF24_send_SPI_command>:
  402580:	b530      	push	{r4, r5, lr}
  402582:	b083      	sub	sp, #12
  402584:	a902      	add	r1, sp, #8
  402586:	f801 0d01 	strb.w	r0, [r1, #-1]!
  40258a:	4c05      	ldr	r4, [pc, #20]	; (4025a0 <nRF24_send_SPI_command+0x20>)
  40258c:	2508      	movs	r5, #8
  40258e:	6365      	str	r5, [r4, #52]	; 0x34
  402590:	2201      	movs	r2, #1
  402592:	4b04      	ldr	r3, [pc, #16]	; (4025a4 <nRF24_send_SPI_command+0x24>)
  402594:	6818      	ldr	r0, [r3, #0]
  402596:	4b04      	ldr	r3, [pc, #16]	; (4025a8 <nRF24_send_SPI_command+0x28>)
  402598:	4798      	blx	r3
  40259a:	6325      	str	r5, [r4, #48]	; 0x30
  40259c:	b003      	add	sp, #12
  40259e:	bd30      	pop	{r4, r5, pc}
  4025a0:	400e1000 	.word	0x400e1000
  4025a4:	20405ff4 	.word	0x20405ff4
  4025a8:	00400ccd 	.word	0x00400ccd

004025ac <nRF24_receive_data>:
  4025ac:	b570      	push	{r4, r5, r6, lr}
  4025ae:	b082      	sub	sp, #8
  4025b0:	a902      	add	r1, sp, #8
  4025b2:	2361      	movs	r3, #97	; 0x61
  4025b4:	f801 3d01 	strb.w	r3, [r1, #-1]!
  4025b8:	4c13      	ldr	r4, [pc, #76]	; (402608 <nRF24_receive_data+0x5c>)
  4025ba:	2508      	movs	r5, #8
  4025bc:	6365      	str	r5, [r4, #52]	; 0x34
  4025be:	4e13      	ldr	r6, [pc, #76]	; (40260c <nRF24_receive_data+0x60>)
  4025c0:	2201      	movs	r2, #1
  4025c2:	6830      	ldr	r0, [r6, #0]
  4025c4:	4b12      	ldr	r3, [pc, #72]	; (402610 <nRF24_receive_data+0x64>)
  4025c6:	4798      	blx	r3
  4025c8:	2220      	movs	r2, #32
  4025ca:	4b12      	ldr	r3, [pc, #72]	; (402614 <nRF24_receive_data+0x68>)
  4025cc:	6819      	ldr	r1, [r3, #0]
  4025ce:	6830      	ldr	r0, [r6, #0]
  4025d0:	4b11      	ldr	r3, [pc, #68]	; (402618 <nRF24_receive_data+0x6c>)
  4025d2:	4798      	blx	r3
  4025d4:	6325      	str	r5, [r4, #48]	; 0x30
  4025d6:	200b      	movs	r0, #11
  4025d8:	4b10      	ldr	r3, [pc, #64]	; (40261c <nRF24_receive_data+0x70>)
  4025da:	4798      	blx	r3
  4025dc:	20e2      	movs	r0, #226	; 0xe2
  4025de:	f88d 0007 	strb.w	r0, [sp, #7]
  4025e2:	4b0f      	ldr	r3, [pc, #60]	; (402620 <nRF24_receive_data+0x74>)
  4025e4:	4798      	blx	r3
  4025e6:	2007      	movs	r0, #7
  4025e8:	4b0e      	ldr	r3, [pc, #56]	; (402624 <nRF24_receive_data+0x78>)
  4025ea:	4798      	blx	r3
  4025ec:	f040 0140 	orr.w	r1, r0, #64	; 0x40
  4025f0:	b2c9      	uxtb	r1, r1
  4025f2:	2007      	movs	r0, #7
  4025f4:	4b0c      	ldr	r3, [pc, #48]	; (402628 <nRF24_receive_data+0x7c>)
  4025f6:	4798      	blx	r3
  4025f8:	2300      	movs	r3, #0
  4025fa:	e000      	b.n	4025fe <nRF24_receive_data+0x52>
  4025fc:	3301      	adds	r3, #1
  4025fe:	2b1f      	cmp	r3, #31
  402600:	ddfc      	ble.n	4025fc <nRF24_receive_data+0x50>
  402602:	b002      	add	sp, #8
  402604:	bd70      	pop	{r4, r5, r6, pc}
  402606:	bf00      	nop
  402608:	400e1000 	.word	0x400e1000
  40260c:	20405ff4 	.word	0x20405ff4
  402610:	00400ccd 	.word	0x00400ccd
  402614:	20405ff0 	.word	0x20405ff0
  402618:	00400cfd 	.word	0x00400cfd
  40261c:	00400aa5 	.word	0x00400aa5
  402620:	00402581 	.word	0x00402581
  402624:	00402541 	.word	0x00402541
  402628:	004024c9 	.word	0x004024c9

0040262c <nRF24_init>:
  40262c:	b530      	push	{r4, r5, lr}
  40262e:	b083      	sub	sp, #12
  402630:	4605      	mov	r5, r0
  402632:	4c1f      	ldr	r4, [pc, #124]	; (4026b0 <nRF24_init+0x84>)
  402634:	491f      	ldr	r1, [pc, #124]	; (4026b4 <nRF24_init+0x88>)
  402636:	4620      	mov	r0, r4
  402638:	4b1f      	ldr	r3, [pc, #124]	; (4026b8 <nRF24_init+0x8c>)
  40263a:	4798      	blx	r3
  40263c:	4620      	mov	r0, r4
  40263e:	4b1f      	ldr	r3, [pc, #124]	; (4026bc <nRF24_init+0x90>)
  402640:	4798      	blx	r3
  402642:	4b1f      	ldr	r3, [pc, #124]	; (4026c0 <nRF24_init+0x94>)
  402644:	601d      	str	r5, [r3, #0]
  402646:	2504      	movs	r5, #4
  402648:	4b1e      	ldr	r3, [pc, #120]	; (4026c4 <nRF24_init+0x98>)
  40264a:	635d      	str	r5, [r3, #52]	; 0x34
  40264c:	2100      	movs	r1, #0
  40264e:	4608      	mov	r0, r1
  402650:	4c1d      	ldr	r4, [pc, #116]	; (4026c8 <nRF24_init+0x9c>)
  402652:	47a0      	blx	r4
  402654:	2007      	movs	r0, #7
  402656:	4b1d      	ldr	r3, [pc, #116]	; (4026cc <nRF24_init+0xa0>)
  402658:	4798      	blx	r3
  40265a:	f040 0140 	orr.w	r1, r0, #64	; 0x40
  40265e:	b2c9      	uxtb	r1, r1
  402660:	2007      	movs	r0, #7
  402662:	47a0      	blx	r4
  402664:	2100      	movs	r1, #0
  402666:	2001      	movs	r0, #1
  402668:	47a0      	blx	r4
  40266a:	2100      	movs	r1, #0
  40266c:	2002      	movs	r0, #2
  40266e:	47a0      	blx	r4
  402670:	2103      	movs	r1, #3
  402672:	4608      	mov	r0, r1
  402674:	47a0      	blx	r4
  402676:	2100      	movs	r1, #0
  402678:	4628      	mov	r0, r5
  40267a:	47a0      	blx	r4
  40267c:	2178      	movs	r1, #120	; 0x78
  40267e:	2005      	movs	r0, #5
  402680:	47a0      	blx	r4
  402682:	2106      	movs	r1, #6
  402684:	4608      	mov	r0, r1
  402686:	47a0      	blx	r4
  402688:	4b11      	ldr	r3, [pc, #68]	; (4026d0 <nRF24_init+0xa4>)
  40268a:	e893 0003 	ldmia.w	r3, {r0, r1}
  40268e:	9000      	str	r0, [sp, #0]
  402690:	f88d 1004 	strb.w	r1, [sp, #4]
  402694:	2205      	movs	r2, #5
  402696:	4669      	mov	r1, sp
  402698:	2010      	movs	r0, #16
  40269a:	4b0e      	ldr	r3, [pc, #56]	; (4026d4 <nRF24_init+0xa8>)
  40269c:	4798      	blx	r3
  40269e:	2102      	movs	r1, #2
  4026a0:	2000      	movs	r0, #0
  4026a2:	47a0      	blx	r4
  4026a4:	490c      	ldr	r1, [pc, #48]	; (4026d8 <nRF24_init+0xac>)
  4026a6:	2021      	movs	r0, #33	; 0x21
  4026a8:	4b0c      	ldr	r3, [pc, #48]	; (4026dc <nRF24_init+0xb0>)
  4026aa:	4798      	blx	r3
  4026ac:	b003      	add	sp, #12
  4026ae:	bd30      	pop	{r4, r5, pc}
  4026b0:	2040016c 	.word	0x2040016c
  4026b4:	20405ff4 	.word	0x20405ff4
  4026b8:	00400f11 	.word	0x00400f11
  4026bc:	00400e31 	.word	0x00400e31
  4026c0:	20405ff0 	.word	0x20405ff0
  4026c4:	400e1400 	.word	0x400e1400
  4026c8:	004024c9 	.word	0x004024c9
  4026cc:	00402541 	.word	0x00402541
  4026d0:	004033fc 	.word	0x004033fc
  4026d4:	004024fd 	.word	0x004024fd
  4026d8:	004025ad 	.word	0x004025ad
  4026dc:	00400b5d 	.word	0x00400b5d

004026e0 <nRF_24_is_data_available>:
  4026e0:	b508      	push	{r3, lr}
  4026e2:	2007      	movs	r0, #7
  4026e4:	4b06      	ldr	r3, [pc, #24]	; (402700 <nRF_24_is_data_available+0x20>)
  4026e6:	4798      	blx	r3
  4026e8:	f000 0042 	and.w	r0, r0, #66	; 0x42
  4026ec:	2842      	cmp	r0, #66	; 0x42
  4026ee:	d001      	beq.n	4026f4 <nRF_24_is_data_available+0x14>
  4026f0:	2000      	movs	r0, #0
  4026f2:	bd08      	pop	{r3, pc}
  4026f4:	2140      	movs	r1, #64	; 0x40
  4026f6:	2007      	movs	r0, #7
  4026f8:	4b02      	ldr	r3, [pc, #8]	; (402704 <nRF_24_is_data_available+0x24>)
  4026fa:	4798      	blx	r3
  4026fc:	2001      	movs	r0, #1
  4026fe:	bd08      	pop	{r3, pc}
  402700:	00402541 	.word	0x00402541
  402704:	004024c9 	.word	0x004024c9

00402708 <nRF24_enter_receive>:
  402708:	b510      	push	{r4, lr}
  40270a:	b082      	sub	sp, #8
  40270c:	2000      	movs	r0, #0
  40270e:	4b0f      	ldr	r3, [pc, #60]	; (40274c <nRF24_enter_receive+0x44>)
  402710:	4798      	blx	r3
  402712:	f040 0101 	orr.w	r1, r0, #1
  402716:	b2c9      	uxtb	r1, r1
  402718:	2000      	movs	r0, #0
  40271a:	4c0d      	ldr	r4, [pc, #52]	; (402750 <nRF24_enter_receive+0x48>)
  40271c:	47a0      	blx	r4
  40271e:	2102      	movs	r1, #2
  402720:	4608      	mov	r0, r1
  402722:	47a0      	blx	r4
  402724:	4b0b      	ldr	r3, [pc, #44]	; (402754 <nRF24_enter_receive+0x4c>)
  402726:	e893 0003 	ldmia.w	r3, {r0, r1}
  40272a:	9000      	str	r0, [sp, #0]
  40272c:	f88d 1004 	strb.w	r1, [sp, #4]
  402730:	2205      	movs	r2, #5
  402732:	4669      	mov	r1, sp
  402734:	200b      	movs	r0, #11
  402736:	4b08      	ldr	r3, [pc, #32]	; (402758 <nRF24_enter_receive+0x50>)
  402738:	4798      	blx	r3
  40273a:	2120      	movs	r1, #32
  40273c:	2012      	movs	r0, #18
  40273e:	47a0      	blx	r4
  402740:	2204      	movs	r2, #4
  402742:	4b06      	ldr	r3, [pc, #24]	; (40275c <nRF24_enter_receive+0x54>)
  402744:	631a      	str	r2, [r3, #48]	; 0x30
  402746:	b002      	add	sp, #8
  402748:	bd10      	pop	{r4, pc}
  40274a:	bf00      	nop
  40274c:	00402541 	.word	0x00402541
  402750:	004024c9 	.word	0x004024c9
  402754:	004033fc 	.word	0x004033fc
  402758:	004024fd 	.word	0x004024fd
  40275c:	400e1400 	.word	0x400e1400

00402760 <set_pwm_channel>:
  402760:	6903      	ldr	r3, [r0, #16]
  402762:	0149      	lsls	r1, r1, #5
  402764:	440b      	add	r3, r1
  402766:	f8c3 2208 	str.w	r2, [r3, #520]	; 0x208
  40276a:	6903      	ldr	r3, [r0, #16]
  40276c:	4419      	add	r1, r3
  40276e:	f44f 53b7 	mov.w	r3, #5856	; 0x16e0
  402772:	f8c1 3210 	str.w	r3, [r1, #528]	; 0x210
  402776:	4770      	bx	lr

00402778 <set_pwm_drive_motor>:
  402778:	b508      	push	{r3, lr}
  40277a:	2803      	cmp	r0, #3
  40277c:	d81a      	bhi.n	4027b4 <set_pwm_drive_motor+0x3c>
  40277e:	e8df f000 	tbb	[pc, r0]
  402782:	0802      	.short	0x0802
  402784:	140e      	.short	0x140e
  402786:	460a      	mov	r2, r1
  402788:	2102      	movs	r1, #2
  40278a:	480b      	ldr	r0, [pc, #44]	; (4027b8 <set_pwm_drive_motor+0x40>)
  40278c:	4b0b      	ldr	r3, [pc, #44]	; (4027bc <set_pwm_drive_motor+0x44>)
  40278e:	4798      	blx	r3
  402790:	bd08      	pop	{r3, pc}
  402792:	460a      	mov	r2, r1
  402794:	2103      	movs	r1, #3
  402796:	4808      	ldr	r0, [pc, #32]	; (4027b8 <set_pwm_drive_motor+0x40>)
  402798:	4b08      	ldr	r3, [pc, #32]	; (4027bc <set_pwm_drive_motor+0x44>)
  40279a:	4798      	blx	r3
  40279c:	bd08      	pop	{r3, pc}
  40279e:	460a      	mov	r2, r1
  4027a0:	2101      	movs	r1, #1
  4027a2:	4805      	ldr	r0, [pc, #20]	; (4027b8 <set_pwm_drive_motor+0x40>)
  4027a4:	4b05      	ldr	r3, [pc, #20]	; (4027bc <set_pwm_drive_motor+0x44>)
  4027a6:	4798      	blx	r3
  4027a8:	bd08      	pop	{r3, pc}
  4027aa:	460a      	mov	r2, r1
  4027ac:	2100      	movs	r1, #0
  4027ae:	4802      	ldr	r0, [pc, #8]	; (4027b8 <set_pwm_drive_motor+0x40>)
  4027b0:	4b02      	ldr	r3, [pc, #8]	; (4027bc <set_pwm_drive_motor+0x44>)
  4027b2:	4798      	blx	r3
  4027b4:	bd08      	pop	{r3, pc}
  4027b6:	bf00      	nop
  4027b8:	2040012c 	.word	0x2040012c
  4027bc:	00402761 	.word	0x00402761

004027c0 <set_pwm_dribbler_motor>:
  4027c0:	b508      	push	{r3, lr}
  4027c2:	4602      	mov	r2, r0
  4027c4:	2100      	movs	r1, #0
  4027c6:	4802      	ldr	r0, [pc, #8]	; (4027d0 <set_pwm_dribbler_motor+0x10>)
  4027c8:	4b02      	ldr	r3, [pc, #8]	; (4027d4 <set_pwm_dribbler_motor+0x14>)
  4027ca:	4798      	blx	r3
  4027cc:	bd08      	pop	{r3, pc}
  4027ce:	bf00      	nop
  4027d0:	20400184 	.word	0x20400184
  4027d4:	00402761 	.word	0x00402761

004027d8 <timer_task_PID_cb>:

bool time_to_pid = 0; //flag for when to run PID for motors
bool time_to_adc = 0; //flag for when to read ADCs

void timer_task_PID_cb(const struct timer_task *const timer_task){ //sets flag for PID
	time_to_pid = 1;
  4027d8:	2201      	movs	r2, #1
  4027da:	4b01      	ldr	r3, [pc, #4]	; (4027e0 <timer_task_PID_cb+0x8>)
  4027dc:	701a      	strb	r2, [r3, #0]
  4027de:	4770      	bx	lr
  4027e0:	20400128 	.word	0x20400128

004027e4 <timer_task_ADC_cb>:
	timer_add_task(&TIMER_0, &task_0);
	timer_start(&TIMER_0);
}

void timer_task_ADC_cb(const struct timer_task *const timer_task){ //sets flag for ADC
	time_to_adc = 1;
  4027e4:	2201      	movs	r2, #1
  4027e6:	4b01      	ldr	r3, [pc, #4]	; (4027ec <timer_task_ADC_cb+0x8>)
  4027e8:	705a      	strb	r2, [r3, #1]
  4027ea:	4770      	bx	lr
  4027ec:	20400128 	.word	0x20400128

004027f0 <initialize_task_PID>:
void initialize_task_PID(void){ //initializes timer 0
  4027f0:	b510      	push	{r4, lr}
	task_0.interval = 10; //amount of counts before repeating task
  4027f2:	4907      	ldr	r1, [pc, #28]	; (402810 <initialize_task_PID+0x20>)
  4027f4:	230a      	movs	r3, #10
  4027f6:	608b      	str	r3, [r1, #8]
	task_0.cb = timer_task_PID_cb; //tells timer what task to execute
  4027f8:	4b06      	ldr	r3, [pc, #24]	; (402814 <initialize_task_PID+0x24>)
  4027fa:	60cb      	str	r3, [r1, #12]
	task_0.mode = TIMER_TASK_REPEAT; //tells timer to repeat task
  4027fc:	2301      	movs	r3, #1
  4027fe:	740b      	strb	r3, [r1, #16]
	timer_add_task(&TIMER_0, &task_0);
  402800:	4c05      	ldr	r4, [pc, #20]	; (402818 <initialize_task_PID+0x28>)
  402802:	4620      	mov	r0, r4
  402804:	4b05      	ldr	r3, [pc, #20]	; (40281c <initialize_task_PID+0x2c>)
  402806:	4798      	blx	r3
	timer_start(&TIMER_0);
  402808:	4620      	mov	r0, r4
  40280a:	4b05      	ldr	r3, [pc, #20]	; (402820 <initialize_task_PID+0x30>)
  40280c:	4798      	blx	r3
  40280e:	bd10      	pop	{r4, pc}
  402810:	204001e0 	.word	0x204001e0
  402814:	004027d9 	.word	0x004027d9
  402818:	204001c0 	.word	0x204001c0
  40281c:	0040106d 	.word	0x0040106d
  402820:	00401031 	.word	0x00401031

00402824 <initialize_task_ADC>:
}

void initialize_task_ADC(void){ //initializes timer 1
  402824:	b510      	push	{r4, lr}
	task_1.interval = 500; //amount of counts before repeating task
  402826:	4908      	ldr	r1, [pc, #32]	; (402848 <initialize_task_ADC+0x24>)
  402828:	f44f 73fa 	mov.w	r3, #500	; 0x1f4
  40282c:	608b      	str	r3, [r1, #8]
	task_1.cb = timer_task_ADC_cb; //tells timer what task to execute
  40282e:	4b07      	ldr	r3, [pc, #28]	; (40284c <initialize_task_ADC+0x28>)
  402830:	60cb      	str	r3, [r1, #12]
	task_1.mode = TIMER_TASK_REPEAT; //tells timer to repeat task
  402832:	2301      	movs	r3, #1
  402834:	740b      	strb	r3, [r1, #16]

	timer_add_task(&TIMER_1, &task_1);
  402836:	4c06      	ldr	r4, [pc, #24]	; (402850 <initialize_task_ADC+0x2c>)
  402838:	4620      	mov	r0, r4
  40283a:	4b06      	ldr	r3, [pc, #24]	; (402854 <initialize_task_ADC+0x30>)
  40283c:	4798      	blx	r3
	timer_start(&TIMER_1);
  40283e:	4620      	mov	r0, r4
  402840:	4b05      	ldr	r3, [pc, #20]	; (402858 <initialize_task_ADC+0x34>)
  402842:	4798      	blx	r3
  402844:	bd10      	pop	{r4, pc}
  402846:	bf00      	nop
  402848:	20405fc0 	.word	0x20405fc0
  40284c:	004027e5 	.word	0x004027e5
  402850:	20400150 	.word	0x20400150
  402854:	0040106d 	.word	0x0040106d
  402858:	00401031 	.word	0x00401031

0040285c <__aeabi_drsub>:
  40285c:	f081 4100 	eor.w	r1, r1, #2147483648	; 0x80000000
  402860:	e002      	b.n	402868 <__adddf3>
  402862:	bf00      	nop

00402864 <__aeabi_dsub>:
  402864:	f083 4300 	eor.w	r3, r3, #2147483648	; 0x80000000

00402868 <__adddf3>:
  402868:	b530      	push	{r4, r5, lr}
  40286a:	ea4f 0441 	mov.w	r4, r1, lsl #1
  40286e:	ea4f 0543 	mov.w	r5, r3, lsl #1
  402872:	ea94 0f05 	teq	r4, r5
  402876:	bf08      	it	eq
  402878:	ea90 0f02 	teqeq	r0, r2
  40287c:	bf1f      	itttt	ne
  40287e:	ea54 0c00 	orrsne.w	ip, r4, r0
  402882:	ea55 0c02 	orrsne.w	ip, r5, r2
  402886:	ea7f 5c64 	mvnsne.w	ip, r4, asr #21
  40288a:	ea7f 5c65 	mvnsne.w	ip, r5, asr #21
  40288e:	f000 80e2 	beq.w	402a56 <__adddf3+0x1ee>
  402892:	ea4f 5454 	mov.w	r4, r4, lsr #21
  402896:	ebd4 5555 	rsbs	r5, r4, r5, lsr #21
  40289a:	bfb8      	it	lt
  40289c:	426d      	neglt	r5, r5
  40289e:	dd0c      	ble.n	4028ba <__adddf3+0x52>
  4028a0:	442c      	add	r4, r5
  4028a2:	ea80 0202 	eor.w	r2, r0, r2
  4028a6:	ea81 0303 	eor.w	r3, r1, r3
  4028aa:	ea82 0000 	eor.w	r0, r2, r0
  4028ae:	ea83 0101 	eor.w	r1, r3, r1
  4028b2:	ea80 0202 	eor.w	r2, r0, r2
  4028b6:	ea81 0303 	eor.w	r3, r1, r3
  4028ba:	2d36      	cmp	r5, #54	; 0x36
  4028bc:	bf88      	it	hi
  4028be:	bd30      	pophi	{r4, r5, pc}
  4028c0:	f011 4f00 	tst.w	r1, #2147483648	; 0x80000000
  4028c4:	ea4f 3101 	mov.w	r1, r1, lsl #12
  4028c8:	f44f 1c80 	mov.w	ip, #1048576	; 0x100000
  4028cc:	ea4c 3111 	orr.w	r1, ip, r1, lsr #12
  4028d0:	d002      	beq.n	4028d8 <__adddf3+0x70>
  4028d2:	4240      	negs	r0, r0
  4028d4:	eb61 0141 	sbc.w	r1, r1, r1, lsl #1
  4028d8:	f013 4f00 	tst.w	r3, #2147483648	; 0x80000000
  4028dc:	ea4f 3303 	mov.w	r3, r3, lsl #12
  4028e0:	ea4c 3313 	orr.w	r3, ip, r3, lsr #12
  4028e4:	d002      	beq.n	4028ec <__adddf3+0x84>
  4028e6:	4252      	negs	r2, r2
  4028e8:	eb63 0343 	sbc.w	r3, r3, r3, lsl #1
  4028ec:	ea94 0f05 	teq	r4, r5
  4028f0:	f000 80a7 	beq.w	402a42 <__adddf3+0x1da>
  4028f4:	f1a4 0401 	sub.w	r4, r4, #1
  4028f8:	f1d5 0e20 	rsbs	lr, r5, #32
  4028fc:	db0d      	blt.n	40291a <__adddf3+0xb2>
  4028fe:	fa02 fc0e 	lsl.w	ip, r2, lr
  402902:	fa22 f205 	lsr.w	r2, r2, r5
  402906:	1880      	adds	r0, r0, r2
  402908:	f141 0100 	adc.w	r1, r1, #0
  40290c:	fa03 f20e 	lsl.w	r2, r3, lr
  402910:	1880      	adds	r0, r0, r2
  402912:	fa43 f305 	asr.w	r3, r3, r5
  402916:	4159      	adcs	r1, r3
  402918:	e00e      	b.n	402938 <__adddf3+0xd0>
  40291a:	f1a5 0520 	sub.w	r5, r5, #32
  40291e:	f10e 0e20 	add.w	lr, lr, #32
  402922:	2a01      	cmp	r2, #1
  402924:	fa03 fc0e 	lsl.w	ip, r3, lr
  402928:	bf28      	it	cs
  40292a:	f04c 0c02 	orrcs.w	ip, ip, #2
  40292e:	fa43 f305 	asr.w	r3, r3, r5
  402932:	18c0      	adds	r0, r0, r3
  402934:	eb51 71e3 	adcs.w	r1, r1, r3, asr #31
  402938:	f001 4500 	and.w	r5, r1, #2147483648	; 0x80000000
  40293c:	d507      	bpl.n	40294e <__adddf3+0xe6>
  40293e:	f04f 0e00 	mov.w	lr, #0
  402942:	f1dc 0c00 	rsbs	ip, ip, #0
  402946:	eb7e 0000 	sbcs.w	r0, lr, r0
  40294a:	eb6e 0101 	sbc.w	r1, lr, r1
  40294e:	f5b1 1f80 	cmp.w	r1, #1048576	; 0x100000
  402952:	d31b      	bcc.n	40298c <__adddf3+0x124>
  402954:	f5b1 1f00 	cmp.w	r1, #2097152	; 0x200000
  402958:	d30c      	bcc.n	402974 <__adddf3+0x10c>
  40295a:	0849      	lsrs	r1, r1, #1
  40295c:	ea5f 0030 	movs.w	r0, r0, rrx
  402960:	ea4f 0c3c 	mov.w	ip, ip, rrx
  402964:	f104 0401 	add.w	r4, r4, #1
  402968:	ea4f 5244 	mov.w	r2, r4, lsl #21
  40296c:	f512 0f80 	cmn.w	r2, #4194304	; 0x400000
  402970:	f080 809a 	bcs.w	402aa8 <__adddf3+0x240>
  402974:	f1bc 4f00 	cmp.w	ip, #2147483648	; 0x80000000
  402978:	bf08      	it	eq
  40297a:	ea5f 0c50 	movseq.w	ip, r0, lsr #1
  40297e:	f150 0000 	adcs.w	r0, r0, #0
  402982:	eb41 5104 	adc.w	r1, r1, r4, lsl #20
  402986:	ea41 0105 	orr.w	r1, r1, r5
  40298a:	bd30      	pop	{r4, r5, pc}
  40298c:	ea5f 0c4c 	movs.w	ip, ip, lsl #1
  402990:	4140      	adcs	r0, r0
  402992:	eb41 0101 	adc.w	r1, r1, r1
  402996:	f411 1f80 	tst.w	r1, #1048576	; 0x100000
  40299a:	f1a4 0401 	sub.w	r4, r4, #1
  40299e:	d1e9      	bne.n	402974 <__adddf3+0x10c>
  4029a0:	f091 0f00 	teq	r1, #0
  4029a4:	bf04      	itt	eq
  4029a6:	4601      	moveq	r1, r0
  4029a8:	2000      	moveq	r0, #0
  4029aa:	fab1 f381 	clz	r3, r1
  4029ae:	bf08      	it	eq
  4029b0:	3320      	addeq	r3, #32
  4029b2:	f1a3 030b 	sub.w	r3, r3, #11
  4029b6:	f1b3 0220 	subs.w	r2, r3, #32
  4029ba:	da0c      	bge.n	4029d6 <__adddf3+0x16e>
  4029bc:	320c      	adds	r2, #12
  4029be:	dd08      	ble.n	4029d2 <__adddf3+0x16a>
  4029c0:	f102 0c14 	add.w	ip, r2, #20
  4029c4:	f1c2 020c 	rsb	r2, r2, #12
  4029c8:	fa01 f00c 	lsl.w	r0, r1, ip
  4029cc:	fa21 f102 	lsr.w	r1, r1, r2
  4029d0:	e00c      	b.n	4029ec <__adddf3+0x184>
  4029d2:	f102 0214 	add.w	r2, r2, #20
  4029d6:	bfd8      	it	le
  4029d8:	f1c2 0c20 	rsble	ip, r2, #32
  4029dc:	fa01 f102 	lsl.w	r1, r1, r2
  4029e0:	fa20 fc0c 	lsr.w	ip, r0, ip
  4029e4:	bfdc      	itt	le
  4029e6:	ea41 010c 	orrle.w	r1, r1, ip
  4029ea:	4090      	lslle	r0, r2
  4029ec:	1ae4      	subs	r4, r4, r3
  4029ee:	bfa2      	ittt	ge
  4029f0:	eb01 5104 	addge.w	r1, r1, r4, lsl #20
  4029f4:	4329      	orrge	r1, r5
  4029f6:	bd30      	popge	{r4, r5, pc}
  4029f8:	ea6f 0404 	mvn.w	r4, r4
  4029fc:	3c1f      	subs	r4, #31
  4029fe:	da1c      	bge.n	402a3a <__adddf3+0x1d2>
  402a00:	340c      	adds	r4, #12
  402a02:	dc0e      	bgt.n	402a22 <__adddf3+0x1ba>
  402a04:	f104 0414 	add.w	r4, r4, #20
  402a08:	f1c4 0220 	rsb	r2, r4, #32
  402a0c:	fa20 f004 	lsr.w	r0, r0, r4
  402a10:	fa01 f302 	lsl.w	r3, r1, r2
  402a14:	ea40 0003 	orr.w	r0, r0, r3
  402a18:	fa21 f304 	lsr.w	r3, r1, r4
  402a1c:	ea45 0103 	orr.w	r1, r5, r3
  402a20:	bd30      	pop	{r4, r5, pc}
  402a22:	f1c4 040c 	rsb	r4, r4, #12
  402a26:	f1c4 0220 	rsb	r2, r4, #32
  402a2a:	fa20 f002 	lsr.w	r0, r0, r2
  402a2e:	fa01 f304 	lsl.w	r3, r1, r4
  402a32:	ea40 0003 	orr.w	r0, r0, r3
  402a36:	4629      	mov	r1, r5
  402a38:	bd30      	pop	{r4, r5, pc}
  402a3a:	fa21 f004 	lsr.w	r0, r1, r4
  402a3e:	4629      	mov	r1, r5
  402a40:	bd30      	pop	{r4, r5, pc}
  402a42:	f094 0f00 	teq	r4, #0
  402a46:	f483 1380 	eor.w	r3, r3, #1048576	; 0x100000
  402a4a:	bf06      	itte	eq
  402a4c:	f481 1180 	eoreq.w	r1, r1, #1048576	; 0x100000
  402a50:	3401      	addeq	r4, #1
  402a52:	3d01      	subne	r5, #1
  402a54:	e74e      	b.n	4028f4 <__adddf3+0x8c>
  402a56:	ea7f 5c64 	mvns.w	ip, r4, asr #21
  402a5a:	bf18      	it	ne
  402a5c:	ea7f 5c65 	mvnsne.w	ip, r5, asr #21
  402a60:	d029      	beq.n	402ab6 <__adddf3+0x24e>
  402a62:	ea94 0f05 	teq	r4, r5
  402a66:	bf08      	it	eq
  402a68:	ea90 0f02 	teqeq	r0, r2
  402a6c:	d005      	beq.n	402a7a <__adddf3+0x212>
  402a6e:	ea54 0c00 	orrs.w	ip, r4, r0
  402a72:	bf04      	itt	eq
  402a74:	4619      	moveq	r1, r3
  402a76:	4610      	moveq	r0, r2
  402a78:	bd30      	pop	{r4, r5, pc}
  402a7a:	ea91 0f03 	teq	r1, r3
  402a7e:	bf1e      	ittt	ne
  402a80:	2100      	movne	r1, #0
  402a82:	2000      	movne	r0, #0
  402a84:	bd30      	popne	{r4, r5, pc}
  402a86:	ea5f 5c54 	movs.w	ip, r4, lsr #21
  402a8a:	d105      	bne.n	402a98 <__adddf3+0x230>
  402a8c:	0040      	lsls	r0, r0, #1
  402a8e:	4149      	adcs	r1, r1
  402a90:	bf28      	it	cs
  402a92:	f041 4100 	orrcs.w	r1, r1, #2147483648	; 0x80000000
  402a96:	bd30      	pop	{r4, r5, pc}
  402a98:	f514 0480 	adds.w	r4, r4, #4194304	; 0x400000
  402a9c:	bf3c      	itt	cc
  402a9e:	f501 1180 	addcc.w	r1, r1, #1048576	; 0x100000
  402aa2:	bd30      	popcc	{r4, r5, pc}
  402aa4:	f001 4500 	and.w	r5, r1, #2147483648	; 0x80000000
  402aa8:	f045 41fe 	orr.w	r1, r5, #2130706432	; 0x7f000000
  402aac:	f441 0170 	orr.w	r1, r1, #15728640	; 0xf00000
  402ab0:	f04f 0000 	mov.w	r0, #0
  402ab4:	bd30      	pop	{r4, r5, pc}
  402ab6:	ea7f 5c64 	mvns.w	ip, r4, asr #21
  402aba:	bf1a      	itte	ne
  402abc:	4619      	movne	r1, r3
  402abe:	4610      	movne	r0, r2
  402ac0:	ea7f 5c65 	mvnseq.w	ip, r5, asr #21
  402ac4:	bf1c      	itt	ne
  402ac6:	460b      	movne	r3, r1
  402ac8:	4602      	movne	r2, r0
  402aca:	ea50 3401 	orrs.w	r4, r0, r1, lsl #12
  402ace:	bf06      	itte	eq
  402ad0:	ea52 3503 	orrseq.w	r5, r2, r3, lsl #12
  402ad4:	ea91 0f03 	teqeq	r1, r3
  402ad8:	f441 2100 	orrne.w	r1, r1, #524288	; 0x80000
  402adc:	bd30      	pop	{r4, r5, pc}
  402ade:	bf00      	nop

00402ae0 <__aeabi_ui2d>:
  402ae0:	f090 0f00 	teq	r0, #0
  402ae4:	bf04      	itt	eq
  402ae6:	2100      	moveq	r1, #0
  402ae8:	4770      	bxeq	lr
  402aea:	b530      	push	{r4, r5, lr}
  402aec:	f44f 6480 	mov.w	r4, #1024	; 0x400
  402af0:	f104 0432 	add.w	r4, r4, #50	; 0x32
  402af4:	f04f 0500 	mov.w	r5, #0
  402af8:	f04f 0100 	mov.w	r1, #0
  402afc:	e750      	b.n	4029a0 <__adddf3+0x138>
  402afe:	bf00      	nop

00402b00 <__aeabi_i2d>:
  402b00:	f090 0f00 	teq	r0, #0
  402b04:	bf04      	itt	eq
  402b06:	2100      	moveq	r1, #0
  402b08:	4770      	bxeq	lr
  402b0a:	b530      	push	{r4, r5, lr}
  402b0c:	f44f 6480 	mov.w	r4, #1024	; 0x400
  402b10:	f104 0432 	add.w	r4, r4, #50	; 0x32
  402b14:	f010 4500 	ands.w	r5, r0, #2147483648	; 0x80000000
  402b18:	bf48      	it	mi
  402b1a:	4240      	negmi	r0, r0
  402b1c:	f04f 0100 	mov.w	r1, #0
  402b20:	e73e      	b.n	4029a0 <__adddf3+0x138>
  402b22:	bf00      	nop

00402b24 <__aeabi_f2d>:
  402b24:	0042      	lsls	r2, r0, #1
  402b26:	ea4f 01e2 	mov.w	r1, r2, asr #3
  402b2a:	ea4f 0131 	mov.w	r1, r1, rrx
  402b2e:	ea4f 7002 	mov.w	r0, r2, lsl #28
  402b32:	bf1f      	itttt	ne
  402b34:	f012 437f 	andsne.w	r3, r2, #4278190080	; 0xff000000
  402b38:	f093 4f7f 	teqne	r3, #4278190080	; 0xff000000
  402b3c:	f081 5160 	eorne.w	r1, r1, #939524096	; 0x38000000
  402b40:	4770      	bxne	lr
  402b42:	f092 0f00 	teq	r2, #0
  402b46:	bf14      	ite	ne
  402b48:	f093 4f7f 	teqne	r3, #4278190080	; 0xff000000
  402b4c:	4770      	bxeq	lr
  402b4e:	b530      	push	{r4, r5, lr}
  402b50:	f44f 7460 	mov.w	r4, #896	; 0x380
  402b54:	f001 4500 	and.w	r5, r1, #2147483648	; 0x80000000
  402b58:	f021 4100 	bic.w	r1, r1, #2147483648	; 0x80000000
  402b5c:	e720      	b.n	4029a0 <__adddf3+0x138>
  402b5e:	bf00      	nop

00402b60 <__aeabi_ul2d>:
  402b60:	ea50 0201 	orrs.w	r2, r0, r1
  402b64:	bf08      	it	eq
  402b66:	4770      	bxeq	lr
  402b68:	b530      	push	{r4, r5, lr}
  402b6a:	f04f 0500 	mov.w	r5, #0
  402b6e:	e00a      	b.n	402b86 <__aeabi_l2d+0x16>

00402b70 <__aeabi_l2d>:
  402b70:	ea50 0201 	orrs.w	r2, r0, r1
  402b74:	bf08      	it	eq
  402b76:	4770      	bxeq	lr
  402b78:	b530      	push	{r4, r5, lr}
  402b7a:	f011 4500 	ands.w	r5, r1, #2147483648	; 0x80000000
  402b7e:	d502      	bpl.n	402b86 <__aeabi_l2d+0x16>
  402b80:	4240      	negs	r0, r0
  402b82:	eb61 0141 	sbc.w	r1, r1, r1, lsl #1
  402b86:	f44f 6480 	mov.w	r4, #1024	; 0x400
  402b8a:	f104 0432 	add.w	r4, r4, #50	; 0x32
  402b8e:	ea5f 5c91 	movs.w	ip, r1, lsr #22
  402b92:	f43f aedc 	beq.w	40294e <__adddf3+0xe6>
  402b96:	f04f 0203 	mov.w	r2, #3
  402b9a:	ea5f 0cdc 	movs.w	ip, ip, lsr #3
  402b9e:	bf18      	it	ne
  402ba0:	3203      	addne	r2, #3
  402ba2:	ea5f 0cdc 	movs.w	ip, ip, lsr #3
  402ba6:	bf18      	it	ne
  402ba8:	3203      	addne	r2, #3
  402baa:	eb02 02dc 	add.w	r2, r2, ip, lsr #3
  402bae:	f1c2 0320 	rsb	r3, r2, #32
  402bb2:	fa00 fc03 	lsl.w	ip, r0, r3
  402bb6:	fa20 f002 	lsr.w	r0, r0, r2
  402bba:	fa01 fe03 	lsl.w	lr, r1, r3
  402bbe:	ea40 000e 	orr.w	r0, r0, lr
  402bc2:	fa21 f102 	lsr.w	r1, r1, r2
  402bc6:	4414      	add	r4, r2
  402bc8:	e6c1      	b.n	40294e <__adddf3+0xe6>
  402bca:	bf00      	nop

00402bcc <__aeabi_dmul>:
  402bcc:	b570      	push	{r4, r5, r6, lr}
  402bce:	f04f 0cff 	mov.w	ip, #255	; 0xff
  402bd2:	f44c 6ce0 	orr.w	ip, ip, #1792	; 0x700
  402bd6:	ea1c 5411 	ands.w	r4, ip, r1, lsr #20
  402bda:	bf1d      	ittte	ne
  402bdc:	ea1c 5513 	andsne.w	r5, ip, r3, lsr #20
  402be0:	ea94 0f0c 	teqne	r4, ip
  402be4:	ea95 0f0c 	teqne	r5, ip
  402be8:	f000 f8de 	bleq	402da8 <__aeabi_dmul+0x1dc>
  402bec:	442c      	add	r4, r5
  402bee:	ea81 0603 	eor.w	r6, r1, r3
  402bf2:	ea21 514c 	bic.w	r1, r1, ip, lsl #21
  402bf6:	ea23 534c 	bic.w	r3, r3, ip, lsl #21
  402bfa:	ea50 3501 	orrs.w	r5, r0, r1, lsl #12
  402bfe:	bf18      	it	ne
  402c00:	ea52 3503 	orrsne.w	r5, r2, r3, lsl #12
  402c04:	f441 1180 	orr.w	r1, r1, #1048576	; 0x100000
  402c08:	f443 1380 	orr.w	r3, r3, #1048576	; 0x100000
  402c0c:	d038      	beq.n	402c80 <__aeabi_dmul+0xb4>
  402c0e:	fba0 ce02 	umull	ip, lr, r0, r2
  402c12:	f04f 0500 	mov.w	r5, #0
  402c16:	fbe1 e502 	umlal	lr, r5, r1, r2
  402c1a:	f006 4200 	and.w	r2, r6, #2147483648	; 0x80000000
  402c1e:	fbe0 e503 	umlal	lr, r5, r0, r3
  402c22:	f04f 0600 	mov.w	r6, #0
  402c26:	fbe1 5603 	umlal	r5, r6, r1, r3
  402c2a:	f09c 0f00 	teq	ip, #0
  402c2e:	bf18      	it	ne
  402c30:	f04e 0e01 	orrne.w	lr, lr, #1
  402c34:	f1a4 04ff 	sub.w	r4, r4, #255	; 0xff
  402c38:	f5b6 7f00 	cmp.w	r6, #512	; 0x200
  402c3c:	f564 7440 	sbc.w	r4, r4, #768	; 0x300
  402c40:	d204      	bcs.n	402c4c <__aeabi_dmul+0x80>
  402c42:	ea5f 0e4e 	movs.w	lr, lr, lsl #1
  402c46:	416d      	adcs	r5, r5
  402c48:	eb46 0606 	adc.w	r6, r6, r6
  402c4c:	ea42 21c6 	orr.w	r1, r2, r6, lsl #11
  402c50:	ea41 5155 	orr.w	r1, r1, r5, lsr #21
  402c54:	ea4f 20c5 	mov.w	r0, r5, lsl #11
  402c58:	ea40 505e 	orr.w	r0, r0, lr, lsr #21
  402c5c:	ea4f 2ece 	mov.w	lr, lr, lsl #11
  402c60:	f1b4 0cfd 	subs.w	ip, r4, #253	; 0xfd
  402c64:	bf88      	it	hi
  402c66:	f5bc 6fe0 	cmphi.w	ip, #1792	; 0x700
  402c6a:	d81e      	bhi.n	402caa <__aeabi_dmul+0xde>
  402c6c:	f1be 4f00 	cmp.w	lr, #2147483648	; 0x80000000
  402c70:	bf08      	it	eq
  402c72:	ea5f 0e50 	movseq.w	lr, r0, lsr #1
  402c76:	f150 0000 	adcs.w	r0, r0, #0
  402c7a:	eb41 5104 	adc.w	r1, r1, r4, lsl #20
  402c7e:	bd70      	pop	{r4, r5, r6, pc}
  402c80:	f006 4600 	and.w	r6, r6, #2147483648	; 0x80000000
  402c84:	ea46 0101 	orr.w	r1, r6, r1
  402c88:	ea40 0002 	orr.w	r0, r0, r2
  402c8c:	ea81 0103 	eor.w	r1, r1, r3
  402c90:	ebb4 045c 	subs.w	r4, r4, ip, lsr #1
  402c94:	bfc2      	ittt	gt
  402c96:	ebd4 050c 	rsbsgt	r5, r4, ip
  402c9a:	ea41 5104 	orrgt.w	r1, r1, r4, lsl #20
  402c9e:	bd70      	popgt	{r4, r5, r6, pc}
  402ca0:	f441 1180 	orr.w	r1, r1, #1048576	; 0x100000
  402ca4:	f04f 0e00 	mov.w	lr, #0
  402ca8:	3c01      	subs	r4, #1
  402caa:	f300 80ab 	bgt.w	402e04 <__aeabi_dmul+0x238>
  402cae:	f114 0f36 	cmn.w	r4, #54	; 0x36
  402cb2:	bfde      	ittt	le
  402cb4:	2000      	movle	r0, #0
  402cb6:	f001 4100 	andle.w	r1, r1, #2147483648	; 0x80000000
  402cba:	bd70      	pople	{r4, r5, r6, pc}
  402cbc:	f1c4 0400 	rsb	r4, r4, #0
  402cc0:	3c20      	subs	r4, #32
  402cc2:	da35      	bge.n	402d30 <__aeabi_dmul+0x164>
  402cc4:	340c      	adds	r4, #12
  402cc6:	dc1b      	bgt.n	402d00 <__aeabi_dmul+0x134>
  402cc8:	f104 0414 	add.w	r4, r4, #20
  402ccc:	f1c4 0520 	rsb	r5, r4, #32
  402cd0:	fa00 f305 	lsl.w	r3, r0, r5
  402cd4:	fa20 f004 	lsr.w	r0, r0, r4
  402cd8:	fa01 f205 	lsl.w	r2, r1, r5
  402cdc:	ea40 0002 	orr.w	r0, r0, r2
  402ce0:	f001 4200 	and.w	r2, r1, #2147483648	; 0x80000000
  402ce4:	f021 4100 	bic.w	r1, r1, #2147483648	; 0x80000000
  402ce8:	eb10 70d3 	adds.w	r0, r0, r3, lsr #31
  402cec:	fa21 f604 	lsr.w	r6, r1, r4
  402cf0:	eb42 0106 	adc.w	r1, r2, r6
  402cf4:	ea5e 0e43 	orrs.w	lr, lr, r3, lsl #1
  402cf8:	bf08      	it	eq
  402cfa:	ea20 70d3 	biceq.w	r0, r0, r3, lsr #31
  402cfe:	bd70      	pop	{r4, r5, r6, pc}
  402d00:	f1c4 040c 	rsb	r4, r4, #12
  402d04:	f1c4 0520 	rsb	r5, r4, #32
  402d08:	fa00 f304 	lsl.w	r3, r0, r4
  402d0c:	fa20 f005 	lsr.w	r0, r0, r5
  402d10:	fa01 f204 	lsl.w	r2, r1, r4
  402d14:	ea40 0002 	orr.w	r0, r0, r2
  402d18:	f001 4100 	and.w	r1, r1, #2147483648	; 0x80000000
  402d1c:	eb10 70d3 	adds.w	r0, r0, r3, lsr #31
  402d20:	f141 0100 	adc.w	r1, r1, #0
  402d24:	ea5e 0e43 	orrs.w	lr, lr, r3, lsl #1
  402d28:	bf08      	it	eq
  402d2a:	ea20 70d3 	biceq.w	r0, r0, r3, lsr #31
  402d2e:	bd70      	pop	{r4, r5, r6, pc}
  402d30:	f1c4 0520 	rsb	r5, r4, #32
  402d34:	fa00 f205 	lsl.w	r2, r0, r5
  402d38:	ea4e 0e02 	orr.w	lr, lr, r2
  402d3c:	fa20 f304 	lsr.w	r3, r0, r4
  402d40:	fa01 f205 	lsl.w	r2, r1, r5
  402d44:	ea43 0302 	orr.w	r3, r3, r2
  402d48:	fa21 f004 	lsr.w	r0, r1, r4
  402d4c:	f001 4100 	and.w	r1, r1, #2147483648	; 0x80000000
  402d50:	fa21 f204 	lsr.w	r2, r1, r4
  402d54:	ea20 0002 	bic.w	r0, r0, r2
  402d58:	eb00 70d3 	add.w	r0, r0, r3, lsr #31
  402d5c:	ea5e 0e43 	orrs.w	lr, lr, r3, lsl #1
  402d60:	bf08      	it	eq
  402d62:	ea20 70d3 	biceq.w	r0, r0, r3, lsr #31
  402d66:	bd70      	pop	{r4, r5, r6, pc}
  402d68:	f094 0f00 	teq	r4, #0
  402d6c:	d10f      	bne.n	402d8e <__aeabi_dmul+0x1c2>
  402d6e:	f001 4600 	and.w	r6, r1, #2147483648	; 0x80000000
  402d72:	0040      	lsls	r0, r0, #1
  402d74:	eb41 0101 	adc.w	r1, r1, r1
  402d78:	f411 1f80 	tst.w	r1, #1048576	; 0x100000
  402d7c:	bf08      	it	eq
  402d7e:	3c01      	subeq	r4, #1
  402d80:	d0f7      	beq.n	402d72 <__aeabi_dmul+0x1a6>
  402d82:	ea41 0106 	orr.w	r1, r1, r6
  402d86:	f095 0f00 	teq	r5, #0
  402d8a:	bf18      	it	ne
  402d8c:	4770      	bxne	lr
  402d8e:	f003 4600 	and.w	r6, r3, #2147483648	; 0x80000000
  402d92:	0052      	lsls	r2, r2, #1
  402d94:	eb43 0303 	adc.w	r3, r3, r3
  402d98:	f413 1f80 	tst.w	r3, #1048576	; 0x100000
  402d9c:	bf08      	it	eq
  402d9e:	3d01      	subeq	r5, #1
  402da0:	d0f7      	beq.n	402d92 <__aeabi_dmul+0x1c6>
  402da2:	ea43 0306 	orr.w	r3, r3, r6
  402da6:	4770      	bx	lr
  402da8:	ea94 0f0c 	teq	r4, ip
  402dac:	ea0c 5513 	and.w	r5, ip, r3, lsr #20
  402db0:	bf18      	it	ne
  402db2:	ea95 0f0c 	teqne	r5, ip
  402db6:	d00c      	beq.n	402dd2 <__aeabi_dmul+0x206>
  402db8:	ea50 0641 	orrs.w	r6, r0, r1, lsl #1
  402dbc:	bf18      	it	ne
  402dbe:	ea52 0643 	orrsne.w	r6, r2, r3, lsl #1
  402dc2:	d1d1      	bne.n	402d68 <__aeabi_dmul+0x19c>
  402dc4:	ea81 0103 	eor.w	r1, r1, r3
  402dc8:	f001 4100 	and.w	r1, r1, #2147483648	; 0x80000000
  402dcc:	f04f 0000 	mov.w	r0, #0
  402dd0:	bd70      	pop	{r4, r5, r6, pc}
  402dd2:	ea50 0641 	orrs.w	r6, r0, r1, lsl #1
  402dd6:	bf06      	itte	eq
  402dd8:	4610      	moveq	r0, r2
  402dda:	4619      	moveq	r1, r3
  402ddc:	ea52 0643 	orrsne.w	r6, r2, r3, lsl #1
  402de0:	d019      	beq.n	402e16 <__aeabi_dmul+0x24a>
  402de2:	ea94 0f0c 	teq	r4, ip
  402de6:	d102      	bne.n	402dee <__aeabi_dmul+0x222>
  402de8:	ea50 3601 	orrs.w	r6, r0, r1, lsl #12
  402dec:	d113      	bne.n	402e16 <__aeabi_dmul+0x24a>
  402dee:	ea95 0f0c 	teq	r5, ip
  402df2:	d105      	bne.n	402e00 <__aeabi_dmul+0x234>
  402df4:	ea52 3603 	orrs.w	r6, r2, r3, lsl #12
  402df8:	bf1c      	itt	ne
  402dfa:	4610      	movne	r0, r2
  402dfc:	4619      	movne	r1, r3
  402dfe:	d10a      	bne.n	402e16 <__aeabi_dmul+0x24a>
  402e00:	ea81 0103 	eor.w	r1, r1, r3
  402e04:	f001 4100 	and.w	r1, r1, #2147483648	; 0x80000000
  402e08:	f041 41fe 	orr.w	r1, r1, #2130706432	; 0x7f000000
  402e0c:	f441 0170 	orr.w	r1, r1, #15728640	; 0xf00000
  402e10:	f04f 0000 	mov.w	r0, #0
  402e14:	bd70      	pop	{r4, r5, r6, pc}
  402e16:	f041 41fe 	orr.w	r1, r1, #2130706432	; 0x7f000000
  402e1a:	f441 0178 	orr.w	r1, r1, #16252928	; 0xf80000
  402e1e:	bd70      	pop	{r4, r5, r6, pc}

00402e20 <__aeabi_ddiv>:
  402e20:	b570      	push	{r4, r5, r6, lr}
  402e22:	f04f 0cff 	mov.w	ip, #255	; 0xff
  402e26:	f44c 6ce0 	orr.w	ip, ip, #1792	; 0x700
  402e2a:	ea1c 5411 	ands.w	r4, ip, r1, lsr #20
  402e2e:	bf1d      	ittte	ne
  402e30:	ea1c 5513 	andsne.w	r5, ip, r3, lsr #20
  402e34:	ea94 0f0c 	teqne	r4, ip
  402e38:	ea95 0f0c 	teqne	r5, ip
  402e3c:	f000 f8a7 	bleq	402f8e <__aeabi_ddiv+0x16e>
  402e40:	eba4 0405 	sub.w	r4, r4, r5
  402e44:	ea81 0e03 	eor.w	lr, r1, r3
  402e48:	ea52 3503 	orrs.w	r5, r2, r3, lsl #12
  402e4c:	ea4f 3101 	mov.w	r1, r1, lsl #12
  402e50:	f000 8088 	beq.w	402f64 <__aeabi_ddiv+0x144>
  402e54:	ea4f 3303 	mov.w	r3, r3, lsl #12
  402e58:	f04f 5580 	mov.w	r5, #268435456	; 0x10000000
  402e5c:	ea45 1313 	orr.w	r3, r5, r3, lsr #4
  402e60:	ea43 6312 	orr.w	r3, r3, r2, lsr #24
  402e64:	ea4f 2202 	mov.w	r2, r2, lsl #8
  402e68:	ea45 1511 	orr.w	r5, r5, r1, lsr #4
  402e6c:	ea45 6510 	orr.w	r5, r5, r0, lsr #24
  402e70:	ea4f 2600 	mov.w	r6, r0, lsl #8
  402e74:	f00e 4100 	and.w	r1, lr, #2147483648	; 0x80000000
  402e78:	429d      	cmp	r5, r3
  402e7a:	bf08      	it	eq
  402e7c:	4296      	cmpeq	r6, r2
  402e7e:	f144 04fd 	adc.w	r4, r4, #253	; 0xfd
  402e82:	f504 7440 	add.w	r4, r4, #768	; 0x300
  402e86:	d202      	bcs.n	402e8e <__aeabi_ddiv+0x6e>
  402e88:	085b      	lsrs	r3, r3, #1
  402e8a:	ea4f 0232 	mov.w	r2, r2, rrx
  402e8e:	1ab6      	subs	r6, r6, r2
  402e90:	eb65 0503 	sbc.w	r5, r5, r3
  402e94:	085b      	lsrs	r3, r3, #1
  402e96:	ea4f 0232 	mov.w	r2, r2, rrx
  402e9a:	f44f 1080 	mov.w	r0, #1048576	; 0x100000
  402e9e:	f44f 2c00 	mov.w	ip, #524288	; 0x80000
  402ea2:	ebb6 0e02 	subs.w	lr, r6, r2
  402ea6:	eb75 0e03 	sbcs.w	lr, r5, r3
  402eaa:	bf22      	ittt	cs
  402eac:	1ab6      	subcs	r6, r6, r2
  402eae:	4675      	movcs	r5, lr
  402eb0:	ea40 000c 	orrcs.w	r0, r0, ip
  402eb4:	085b      	lsrs	r3, r3, #1
  402eb6:	ea4f 0232 	mov.w	r2, r2, rrx
  402eba:	ebb6 0e02 	subs.w	lr, r6, r2
  402ebe:	eb75 0e03 	sbcs.w	lr, r5, r3
  402ec2:	bf22      	ittt	cs
  402ec4:	1ab6      	subcs	r6, r6, r2
  402ec6:	4675      	movcs	r5, lr
  402ec8:	ea40 005c 	orrcs.w	r0, r0, ip, lsr #1
  402ecc:	085b      	lsrs	r3, r3, #1
  402ece:	ea4f 0232 	mov.w	r2, r2, rrx
  402ed2:	ebb6 0e02 	subs.w	lr, r6, r2
  402ed6:	eb75 0e03 	sbcs.w	lr, r5, r3
  402eda:	bf22      	ittt	cs
  402edc:	1ab6      	subcs	r6, r6, r2
  402ede:	4675      	movcs	r5, lr
  402ee0:	ea40 009c 	orrcs.w	r0, r0, ip, lsr #2
  402ee4:	085b      	lsrs	r3, r3, #1
  402ee6:	ea4f 0232 	mov.w	r2, r2, rrx
  402eea:	ebb6 0e02 	subs.w	lr, r6, r2
  402eee:	eb75 0e03 	sbcs.w	lr, r5, r3
  402ef2:	bf22      	ittt	cs
  402ef4:	1ab6      	subcs	r6, r6, r2
  402ef6:	4675      	movcs	r5, lr
  402ef8:	ea40 00dc 	orrcs.w	r0, r0, ip, lsr #3
  402efc:	ea55 0e06 	orrs.w	lr, r5, r6
  402f00:	d018      	beq.n	402f34 <__aeabi_ddiv+0x114>
  402f02:	ea4f 1505 	mov.w	r5, r5, lsl #4
  402f06:	ea45 7516 	orr.w	r5, r5, r6, lsr #28
  402f0a:	ea4f 1606 	mov.w	r6, r6, lsl #4
  402f0e:	ea4f 03c3 	mov.w	r3, r3, lsl #3
  402f12:	ea43 7352 	orr.w	r3, r3, r2, lsr #29
  402f16:	ea4f 02c2 	mov.w	r2, r2, lsl #3
  402f1a:	ea5f 1c1c 	movs.w	ip, ip, lsr #4
  402f1e:	d1c0      	bne.n	402ea2 <__aeabi_ddiv+0x82>
  402f20:	f411 1f80 	tst.w	r1, #1048576	; 0x100000
  402f24:	d10b      	bne.n	402f3e <__aeabi_ddiv+0x11e>
  402f26:	ea41 0100 	orr.w	r1, r1, r0
  402f2a:	f04f 0000 	mov.w	r0, #0
  402f2e:	f04f 4c00 	mov.w	ip, #2147483648	; 0x80000000
  402f32:	e7b6      	b.n	402ea2 <__aeabi_ddiv+0x82>
  402f34:	f411 1f80 	tst.w	r1, #1048576	; 0x100000
  402f38:	bf04      	itt	eq
  402f3a:	4301      	orreq	r1, r0
  402f3c:	2000      	moveq	r0, #0
  402f3e:	f1b4 0cfd 	subs.w	ip, r4, #253	; 0xfd
  402f42:	bf88      	it	hi
  402f44:	f5bc 6fe0 	cmphi.w	ip, #1792	; 0x700
  402f48:	f63f aeaf 	bhi.w	402caa <__aeabi_dmul+0xde>
  402f4c:	ebb5 0c03 	subs.w	ip, r5, r3
  402f50:	bf04      	itt	eq
  402f52:	ebb6 0c02 	subseq.w	ip, r6, r2
  402f56:	ea5f 0c50 	movseq.w	ip, r0, lsr #1
  402f5a:	f150 0000 	adcs.w	r0, r0, #0
  402f5e:	eb41 5104 	adc.w	r1, r1, r4, lsl #20
  402f62:	bd70      	pop	{r4, r5, r6, pc}
  402f64:	f00e 4e00 	and.w	lr, lr, #2147483648	; 0x80000000
  402f68:	ea4e 3111 	orr.w	r1, lr, r1, lsr #12
  402f6c:	eb14 045c 	adds.w	r4, r4, ip, lsr #1
  402f70:	bfc2      	ittt	gt
  402f72:	ebd4 050c 	rsbsgt	r5, r4, ip
  402f76:	ea41 5104 	orrgt.w	r1, r1, r4, lsl #20
  402f7a:	bd70      	popgt	{r4, r5, r6, pc}
  402f7c:	f441 1180 	orr.w	r1, r1, #1048576	; 0x100000
  402f80:	f04f 0e00 	mov.w	lr, #0
  402f84:	3c01      	subs	r4, #1
  402f86:	e690      	b.n	402caa <__aeabi_dmul+0xde>
  402f88:	ea45 0e06 	orr.w	lr, r5, r6
  402f8c:	e68d      	b.n	402caa <__aeabi_dmul+0xde>
  402f8e:	ea0c 5513 	and.w	r5, ip, r3, lsr #20
  402f92:	ea94 0f0c 	teq	r4, ip
  402f96:	bf08      	it	eq
  402f98:	ea95 0f0c 	teqeq	r5, ip
  402f9c:	f43f af3b 	beq.w	402e16 <__aeabi_dmul+0x24a>
  402fa0:	ea94 0f0c 	teq	r4, ip
  402fa4:	d10a      	bne.n	402fbc <__aeabi_ddiv+0x19c>
  402fa6:	ea50 3401 	orrs.w	r4, r0, r1, lsl #12
  402faa:	f47f af34 	bne.w	402e16 <__aeabi_dmul+0x24a>
  402fae:	ea95 0f0c 	teq	r5, ip
  402fb2:	f47f af25 	bne.w	402e00 <__aeabi_dmul+0x234>
  402fb6:	4610      	mov	r0, r2
  402fb8:	4619      	mov	r1, r3
  402fba:	e72c      	b.n	402e16 <__aeabi_dmul+0x24a>
  402fbc:	ea95 0f0c 	teq	r5, ip
  402fc0:	d106      	bne.n	402fd0 <__aeabi_ddiv+0x1b0>
  402fc2:	ea52 3503 	orrs.w	r5, r2, r3, lsl #12
  402fc6:	f43f aefd 	beq.w	402dc4 <__aeabi_dmul+0x1f8>
  402fca:	4610      	mov	r0, r2
  402fcc:	4619      	mov	r1, r3
  402fce:	e722      	b.n	402e16 <__aeabi_dmul+0x24a>
  402fd0:	ea50 0641 	orrs.w	r6, r0, r1, lsl #1
  402fd4:	bf18      	it	ne
  402fd6:	ea52 0643 	orrsne.w	r6, r2, r3, lsl #1
  402fda:	f47f aec5 	bne.w	402d68 <__aeabi_dmul+0x19c>
  402fde:	ea50 0441 	orrs.w	r4, r0, r1, lsl #1
  402fe2:	f47f af0d 	bne.w	402e00 <__aeabi_dmul+0x234>
  402fe6:	ea52 0543 	orrs.w	r5, r2, r3, lsl #1
  402fea:	f47f aeeb 	bne.w	402dc4 <__aeabi_dmul+0x1f8>
  402fee:	e712      	b.n	402e16 <__aeabi_dmul+0x24a>

00402ff0 <__aeabi_d2f>:
  402ff0:	ea4f 0241 	mov.w	r2, r1, lsl #1
  402ff4:	f1b2 43e0 	subs.w	r3, r2, #1879048192	; 0x70000000
  402ff8:	bf24      	itt	cs
  402ffa:	f5b3 1c00 	subscs.w	ip, r3, #2097152	; 0x200000
  402ffe:	f1dc 5cfe 	rsbscs	ip, ip, #532676608	; 0x1fc00000
  403002:	d90d      	bls.n	403020 <__aeabi_d2f+0x30>
  403004:	f001 4c00 	and.w	ip, r1, #2147483648	; 0x80000000
  403008:	ea4f 02c0 	mov.w	r2, r0, lsl #3
  40300c:	ea4c 7050 	orr.w	r0, ip, r0, lsr #29
  403010:	f1b2 4f00 	cmp.w	r2, #2147483648	; 0x80000000
  403014:	eb40 0083 	adc.w	r0, r0, r3, lsl #2
  403018:	bf08      	it	eq
  40301a:	f020 0001 	biceq.w	r0, r0, #1
  40301e:	4770      	bx	lr
  403020:	f011 4f80 	tst.w	r1, #1073741824	; 0x40000000
  403024:	d121      	bne.n	40306a <__aeabi_d2f+0x7a>
  403026:	f113 7238 	adds.w	r2, r3, #48234496	; 0x2e00000
  40302a:	bfbc      	itt	lt
  40302c:	f001 4000 	andlt.w	r0, r1, #2147483648	; 0x80000000
  403030:	4770      	bxlt	lr
  403032:	f441 1180 	orr.w	r1, r1, #1048576	; 0x100000
  403036:	ea4f 5252 	mov.w	r2, r2, lsr #21
  40303a:	f1c2 0218 	rsb	r2, r2, #24
  40303e:	f1c2 0c20 	rsb	ip, r2, #32
  403042:	fa10 f30c 	lsls.w	r3, r0, ip
  403046:	fa20 f002 	lsr.w	r0, r0, r2
  40304a:	bf18      	it	ne
  40304c:	f040 0001 	orrne.w	r0, r0, #1
  403050:	ea4f 23c1 	mov.w	r3, r1, lsl #11
  403054:	ea4f 23d3 	mov.w	r3, r3, lsr #11
  403058:	fa03 fc0c 	lsl.w	ip, r3, ip
  40305c:	ea40 000c 	orr.w	r0, r0, ip
  403060:	fa23 f302 	lsr.w	r3, r3, r2
  403064:	ea4f 0343 	mov.w	r3, r3, lsl #1
  403068:	e7cc      	b.n	403004 <__aeabi_d2f+0x14>
  40306a:	ea7f 5362 	mvns.w	r3, r2, asr #21
  40306e:	d107      	bne.n	403080 <__aeabi_d2f+0x90>
  403070:	ea50 3301 	orrs.w	r3, r0, r1, lsl #12
  403074:	bf1e      	ittt	ne
  403076:	f04f 40fe 	movne.w	r0, #2130706432	; 0x7f000000
  40307a:	f440 0040 	orrne.w	r0, r0, #12582912	; 0xc00000
  40307e:	4770      	bxne	lr
  403080:	f001 4000 	and.w	r0, r1, #2147483648	; 0x80000000
  403084:	f040 40fe 	orr.w	r0, r0, #2130706432	; 0x7f000000
  403088:	f440 0000 	orr.w	r0, r0, #8388608	; 0x800000
  40308c:	4770      	bx	lr
  40308e:	bf00      	nop

00403090 <__libc_init_array>:
  403090:	b570      	push	{r4, r5, r6, lr}
  403092:	4e0d      	ldr	r6, [pc, #52]	; (4030c8 <__libc_init_array+0x38>)
  403094:	4c0d      	ldr	r4, [pc, #52]	; (4030cc <__libc_init_array+0x3c>)
  403096:	1ba4      	subs	r4, r4, r6
  403098:	10a4      	asrs	r4, r4, #2
  40309a:	2500      	movs	r5, #0
  40309c:	42a5      	cmp	r5, r4
  40309e:	d109      	bne.n	4030b4 <__libc_init_array+0x24>
  4030a0:	4e0b      	ldr	r6, [pc, #44]	; (4030d0 <__libc_init_array+0x40>)
  4030a2:	4c0c      	ldr	r4, [pc, #48]	; (4030d4 <__libc_init_array+0x44>)
  4030a4:	f000 f9ae 	bl	403404 <_init>
  4030a8:	1ba4      	subs	r4, r4, r6
  4030aa:	10a4      	asrs	r4, r4, #2
  4030ac:	2500      	movs	r5, #0
  4030ae:	42a5      	cmp	r5, r4
  4030b0:	d105      	bne.n	4030be <__libc_init_array+0x2e>
  4030b2:	bd70      	pop	{r4, r5, r6, pc}
  4030b4:	f856 3025 	ldr.w	r3, [r6, r5, lsl #2]
  4030b8:	4798      	blx	r3
  4030ba:	3501      	adds	r5, #1
  4030bc:	e7ee      	b.n	40309c <__libc_init_array+0xc>
  4030be:	f856 3025 	ldr.w	r3, [r6, r5, lsl #2]
  4030c2:	4798      	blx	r3
  4030c4:	3501      	adds	r5, #1
  4030c6:	e7f2      	b.n	4030ae <__libc_init_array+0x1e>
  4030c8:	00403410 	.word	0x00403410
  4030cc:	00403410 	.word	0x00403410
  4030d0:	00403410 	.word	0x00403410
  4030d4:	00403414 	.word	0x00403414

004030d8 <memset>:
  4030d8:	4402      	add	r2, r0
  4030da:	4603      	mov	r3, r0
  4030dc:	4293      	cmp	r3, r2
  4030de:	d100      	bne.n	4030e2 <memset+0xa>
  4030e0:	4770      	bx	lr
  4030e2:	f803 1b01 	strb.w	r1, [r3], #1
  4030e6:	e7f9      	b.n	4030dc <memset+0x4>
  4030e8:	682f2e2e 	.word	0x682f2e2e
  4030ec:	692f6c61 	.word	0x692f6c61
  4030f0:	756c636e 	.word	0x756c636e
  4030f4:	682f6564 	.word	0x682f6564
  4030f8:	775f6c61 	.word	0x775f6c61
  4030fc:	682e7464 	.word	0x682e7464
  403100:	00000000 	.word	0x00000000
  403104:	682f2e2e 	.word	0x682f2e2e
  403108:	732f6c61 	.word	0x732f6c61
  40310c:	682f6372 	.word	0x682f6372
  403110:	615f6c61 	.word	0x615f6c61
  403114:	735f6364 	.word	0x735f6364
  403118:	2e636e79 	.word	0x2e636e79
  40311c:	00000063 	.word	0x00000063
  403120:	682f2e2e 	.word	0x682f2e2e
  403124:	732f6c61 	.word	0x732f6c61
  403128:	682f6372 	.word	0x682f6372
  40312c:	695f6c61 	.word	0x695f6c61
  403130:	6d5f6332 	.word	0x6d5f6332
  403134:	6e79735f 	.word	0x6e79735f
  403138:	00632e63 	.word	0x00632e63
  40313c:	682f2e2e 	.word	0x682f2e2e
  403140:	732f6c61 	.word	0x732f6c61
  403144:	682f6372 	.word	0x682f6372
  403148:	695f6c61 	.word	0x695f6c61
  40314c:	00632e6f 	.word	0x00632e6f
  403150:	682f2e2e 	.word	0x682f2e2e
  403154:	732f6c61 	.word	0x732f6c61
  403158:	682f6372 	.word	0x682f6372
  40315c:	705f6c61 	.word	0x705f6c61
  403160:	632e6d77 	.word	0x632e6d77
  403164:	00000000 	.word	0x00000000
  403168:	682f2e2e 	.word	0x682f2e2e
  40316c:	732f6c61 	.word	0x732f6c61
  403170:	682f6372 	.word	0x682f6372
  403174:	735f6c61 	.word	0x735f6c61
  403178:	6d5f6970 	.word	0x6d5f6970
  40317c:	6e79735f 	.word	0x6e79735f
  403180:	00632e63 	.word	0x00632e63
  403184:	682f2e2e 	.word	0x682f2e2e
  403188:	732f6c61 	.word	0x732f6c61
  40318c:	682f6372 	.word	0x682f6372
  403190:	745f6c61 	.word	0x745f6c61
  403194:	72656d69 	.word	0x72656d69
  403198:	0000632e 	.word	0x0000632e
  40319c:	682f2e2e 	.word	0x682f2e2e
  4031a0:	752f6c61 	.word	0x752f6c61
  4031a4:	736c6974 	.word	0x736c6974
  4031a8:	6372732f 	.word	0x6372732f
  4031ac:	6974752f 	.word	0x6974752f
  4031b0:	6c5f736c 	.word	0x6c5f736c
  4031b4:	2e747369 	.word	0x2e747369
  4031b8:	00000063 	.word	0x00000063

004031bc <_afecs>:
  4031bc:	00000000 2f843100 03000000 ffffffff     .....1./........
  4031cc:	0000ffff 00000000 00000000 00000000     ................
  4031dc:	0000010c 00000000 00000000 00000000     ................
  4031ec:	00000000 00000200 00000200 00000200     ................
  4031fc:	00000200 00000200 00000200 00000200     ................
  40320c:	00000200 00000200 00000200 00000200     ................
  40321c:	00000200 682f2e2e 612f6c70 2f636566     ....../hpl/afec/
  40322c:	5f6c7068 63656661 0000632e              hpl_afec.c..

00403238 <_ext_irq>:
  403238:	00000000 03c08000 03c08020 03c08020     ........ ... ...
  403248:	00000000 03c00000 00008020 00000001     ........ .......
  403258:	00000002 000000f2 000000f2 00000000     ................
  403268:	000000f0 00000002                       ........

00403270 <_pio_irq_n>:
  403270:	00100b0a 682f2e2e 702f6c70 682f6f69     ....../hpl/pio/h
  403280:	705f6c70 655f6f69 632e7478 00000000     pl_pio_ext.c....

00403290 <_pwms>:
  403290:	40020000 0000001f 00010001 00000001     ...@............
  4032a0:	00000001 000000ff 00000000 00000004     ................
	...
  4032bc:	00000004 00403318 00000000 204000dc     .....3@.......@ 
  4032cc:	4005c000 0000003c 00010001 00000001     ...@<...........
  4032dc:	00000001 000000ff 00000000 00000004     ................
	...
  4032f8:	00000001 00403308 00000000 204000d0     .....3@.......@ 

00403308 <_ch_cfg1>:
  403308:	00000000 00000208 00000400 00000200     ................

00403318 <_ch_cfg0>:
  403318:	00000000 00000207 00000400 00000200     ................
  403328:	00000001 00000207 00000400 00000200     ................
  403338:	00000002 00000207 00000400 00000200     ................
  403348:	00000003 00000207 00000400 00000200     ................
  403358:	682f2e2e 702f6c70 682f6d77 705f6c70     ../hpl/pwm/hpl_p
  403368:	632e6d77 00000000                       wm.c....

00403370 <spi_regs>:
  403370:	00000000 80000000 00000001 0496fa02     ................
  403380:	0000ffff 682f2e2e 732f6c70 682f6970     ....../hpl/spi/h
  403390:	735f6c70 632e6970 00000000 682f2e2e     pl_spi.c....../h
  4033a0:	742f6c70 70682f63 63745f6c 0000632e     pl/tc/hpl_tc.c..

004033b0 <_i2cm_sync_cfgs>:
  4033b0:	40018000 00000020 00000000 00000000     ...@ ...........
  4033c0:	0002baba 000249f0 682f2e2e 742f6c70     .....I..../hpl/t
  4033d0:	73686977 6c70682f 6977745f 632e7368     wihs/hpl_twihs.c
  4033e0:	00000000 682f2e2e 772f6c70 682f7464     ....../hpl/wdt/h
  4033f0:	775f6c70 632e7464 00000000 bbccddee     pl_wdt.c........
  403400:	000000aa                                ....

00403404 <_init>:
  403404:	b5f8      	push	{r3, r4, r5, r6, r7, lr}
  403406:	bf00      	nop
  403408:	bcf8      	pop	{r3, r4, r5, r6, r7}
  40340a:	bc08      	pop	{r3}
  40340c:	469e      	mov	lr, r3
  40340e:	4770      	bx	lr

00403410 <__init_array_start>:
  403410:	0040017d 	.word	0x0040017d

00403414 <_fini>:
  403414:	b5f8      	push	{r3, r4, r5, r6, r7, lr}
  403416:	bf00      	nop
  403418:	bcf8      	pop	{r3, r4, r5, r6, r7}
  40341a:	bc08      	pop	{r3}
  40341c:	469e      	mov	lr, r3
  40341e:	4770      	bx	lr

00403420 <__fini_array_start>:
  403420:	00400159 	.word	0x00400159
